
main.elf:     file format elf32-avr

Sections:
Idx Name          Size      VMA       LMA       File off  Algn
  0 .data         00000000  00800100  0000221c  00002290  2**0
                  CONTENTS, ALLOC, LOAD, DATA
  1 .text         0000221c  00000000  00000000  00000074  2**1
                  CONTENTS, ALLOC, LOAD, READONLY, CODE
  2 .eeprom       00000010  00810000  00810000  00002290  2**0
                  CONTENTS, READONLY
  3 data          000001ec  00000000  00000000  000022a0  2**1
                  CONTENTS, READONLY
  4 .avr.prop     00001b44  00000000  00000000  0000248c  2**0
                  CONTENTS, READONLY

Disassembly of section .text:

00000000 <__ctors_end>:
       0:	12 c0       	rjmp	.+36     	; 0x26 <RESET>
       2:	18 95       	reti
       4:	18 95       	reti
       6:	18 95       	reti
       8:	18 95       	reti
       a:	18 95       	reti
       c:	18 95       	reti
       e:	18 95       	reti
      10:	18 95       	reti
      12:	2e c0       	rjmp	.+92     	; 0x70 <TIM0_OVF>
      14:	18 95       	reti
      16:	18 95       	reti
      18:	18 95       	reti
      1a:	18 95       	reti
      1c:	18 95       	reti
      1e:	18 95       	reti
      20:	18 95       	reti
      22:	18 95       	reti
      24:	18 95       	reti

00000026 <RESET>:
      26:	00 00       	nop
      28:	f8 94       	cli
      2a:	66 24       	eor	r6, r6
      2c:	6f be       	out	0x3f, r6	; 63
      2e:	8f ef       	ldi	r24, 0xFF	; 255
      30:	98 e0       	ldi	r25, 0x08	; 8
      32:	8d bf       	out	0x3d, r24	; 61
      34:	9e bf       	out	0x3e, r25	; 62

00000036 <TIMER0_SET>:
      36:	03 b7       	in	r16, 0x33	; 51
      38:	03 60       	ori	r16, 0x03	; 3
      3a:	03 bf       	out	0x33, r16	; 51
      3c:	0f e8       	ldi	r16, 0x8F	; 143
      3e:	30 2e       	mov	r3, r16
      40:	02 bf       	out	0x32, r16	; 50
      42:	09 b7       	in	r16, 0x39	; 57
      44:	01 60       	ori	r16, 0x01	; 1
      46:	09 bf       	out	0x39, r16	; 57
      48:	44 24       	eor	r4, r4
      4a:	55 24       	eor	r5, r5

0000004c <WATCHDOG_SET>:
      4c:	01 b5       	in	r16, 0x21	; 33
      4e:	08 61       	ori	r16, 0x18	; 24
      50:	07 60       	ori	r16, 0x07	; 7
      52:	01 bd       	out	0x21, r16	; 33

00000054 <USART_SET>:
      54:	00 27       	eor	r16, r16
      56:	00 bd       	out	0x20, r16	; 32
      58:	04 e3       	ldi	r16, 0x34	; 52
      5a:	09 b9       	out	0x09, r16	; 9
      5c:	0a b1       	in	r16, 0x0a	; 10
      5e:	08 61       	ori	r16, 0x18	; 24
      60:	0a b9       	out	0x0a, r16	; 10
      62:	0e e8       	ldi	r16, 0x8E	; 142
      64:	00 bd       	out	0x20, r16	; 32
      66:	00 b5       	in	r16, 0x20	; 32
      68:	00 64       	ori	r16, 0x40	; 64
      6a:	00 bd       	out	0x20, r16	; 32

0000006c <GOOD>:
      6c:	78 94       	sei
      6e:	c8 cf       	rjmp	.-112    	; 0x0 <__ctors_end>

00000070 <TIM0_OVF>:
      70:	f8 94       	cli
      72:	2f b6       	in	r2, 0x3f	; 63
      74:	43 94       	inc	r4
      76:	09 f0       	breq	.+2      	; 0x7a <TIM0_ADJ>
      78:	53 94       	inc	r5

0000007a <TIM0_ADJ>:
      7a:	32 be       	out	0x32, r3	; 50
      7c:	a8 95       	wdr
      7e:	66 24       	eor	r6, r6
      80:	2f be       	out	0x3f, r2	; 63
      82:	78 94       	sei
      84:	18 95       	reti

00000086 <HALT>:
      86:	00 00       	nop
      88:	78 94       	sei
      8a:	00 e8       	ldi	r16, 0x80	; 128
      8c:	05 bf       	out	0x35, r16	; 53
      8e:	88 95       	sleep
      90:	ca cf       	rjmp	.-108    	; 0x26 <RESET>

00000092 <disclaimer>:
      92:	44 49       	sbci	r20, 0x94	; 148
      94:	53 43       	sbci	r21, 0x33	; 51
      96:	4c 41       	sbci	r20, 0x1C	; 28
      98:	49 4d       	sbci	r20, 0xD9	; 217
      9a:	45 52       	subi	r20, 0x25	; 37
      9c:	0a 74       	andi	r16, 0x4A	; 74
      9e:	68 69       	ori	r22, 0x98	; 152
      a0:	73 20       	and	r7, r3
      a2:	73 6f       	ori	r23, 0xF3	; 243
      a4:	66 74       	andi	r22, 0x46	; 70
      a6:	77 61       	ori	r23, 0x17	; 23
      a8:	72 65       	ori	r23, 0x52	; 82
      aa:	20 69       	ori	r18, 0x90	; 144
      ac:	73 20       	and	r7, r3
      ae:	70 72       	andi	r23, 0x20	; 32
      b0:	6f 76       	andi	r22, 0x6F	; 111
      b2:	69 64       	ori	r22, 0x49	; 73
      b4:	65 64       	ori	r22, 0x45	; 69
      b6:	20 22       	and	r2, r16
      b8:	41 53       	subi	r20, 0x31	; 49
      ba:	20 49       	sbci	r18, 0x90	; 144
      bc:	53 22       	and	r5, r19
      be:	2e 0a       	sbc	r2, r30
      c0:	43 6f       	ori	r20, 0xF3	; 243
      c2:	70 79       	andi	r23, 0x90	; 144
      c4:	72 69       	ori	r23, 0x92	; 146
      c6:	67 68       	ori	r22, 0x87	; 135
      c8:	74 20       	and	r7, r4
      ca:	c2 a9       	ldd	r28, Z+50	; 0x32
      cc:	20 32       	cpi	r18, 0x20	; 32
      ce:	30 32       	cpi	r19, 0x20	; 32
      d0:	30 2c       	mov	r3, r0
      d2:	20 41       	sbci	r18, 0x10	; 16
      d4:	6c 76       	andi	r22, 0x6C	; 108
      d6:	61 72       	andi	r22, 0x21	; 33
      d8:	6f 20       	and	r6, r15
      da:	47 6f       	ori	r20, 0xF7	; 247
      dc:	6d 65       	ori	r22, 0x5D	; 93
      de:	73 20       	and	r7, r3
      e0:	53 6f       	ori	r21, 0xF3	; 243
      e2:	62 72       	andi	r22, 0x22	; 34
      e4:	61 6c       	ori	r22, 0xC1	; 193
      e6:	20 42       	sbci	r18, 0x20	; 32
      e8:	61 72       	andi	r22, 0x21	; 33
      ea:	63 65       	ori	r22, 0x53	; 83
      ec:	6c 6c       	ori	r22, 0xCC	; 204
      ee:	6f 73       	andi	r22, 0x3F	; 63
      f0:	2c 0a       	sbc	r2, r28
      f2:	4c 69       	ori	r20, 0x9C	; 156
      f4:	63 65       	ori	r22, 0x53	; 83
      f6:	6e 63       	ori	r22, 0x3E	; 62
      f8:	65 20       	and	r6, r5
      fa:	43 72       	andi	r20, 0x23	; 35
      fc:	65 61       	ori	r22, 0x15	; 21
      fe:	74 69       	ori	r23, 0x94	; 148
     100:	76 65       	ori	r23, 0x56	; 86
     102:	20 43       	sbci	r18, 0x30	; 48
     104:	6f 6d       	ori	r22, 0xDF	; 223
     106:	6d 6f       	ori	r22, 0xFD	; 253
     108:	6e 73       	andi	r22, 0x3E	; 62
     10a:	2c 66       	ori	r18, 0x6C	; 108
     10c:	38 66       	ori	r19, 0x68	; 104
     10e:	39 38       	cpi	r19, 0x89	; 137
     110:	32 38       	cpi	r19, 0x82	; 130
     112:	34 2d       	mov	r19, r4
     114:	35 38       	cpi	r19, 0x85	; 133
     116:	39 65       	ori	r19, 0x59	; 89
     118:	2d 34       	cpi	r18, 0x4D	; 77
     11a:	32 39       	cpi	r19, 0x92	; 146
     11c:	30 2d       	mov	r19, r0
     11e:	38 36       	cpi	r19, 0x68	; 104
     120:	37 63       	ori	r19, 0x37	; 55
     122:	2d 30       	cpi	r18, 0x0D	; 13
     124:	61 63       	ori	r22, 0x31	; 49
     126:	33 38       	cpi	r19, 0x83	; 131
     128:	32 34       	cpi	r19, 0x42	; 66
     12a:	37 32       	cpi	r19, 0x27	; 39
     12c:	31 61       	ori	r19, 0x11	; 17
     12e:	63 2c       	mov	r6, r3
     130:	0a 41       	sbci	r16, 0x1A	; 26
     132:	74 74       	andi	r23, 0x44	; 68
     134:	72 69       	ori	r23, 0x92	; 146
     136:	62 75       	andi	r22, 0x52	; 82
     138:	74 69       	ori	r23, 0x94	; 148
     13a:	6f 6e       	ori	r22, 0xEF	; 239
     13c:	2d 4e       	sbci	r18, 0xED	; 237
     13e:	6f 6e       	ori	r22, 0xEF	; 239
     140:	43 6f       	ori	r20, 0xF3	; 243
     142:	6d 6d       	ori	r22, 0xDD	; 221
     144:	65 72       	andi	r22, 0x25	; 37
     146:	63 69       	ori	r22, 0x93	; 147
     148:	61 6c       	ori	r22, 0xC1	; 193
     14a:	20 34       	cpi	r18, 0x40	; 64
     14c:	2e 30       	cpi	r18, 0x0E	; 14
     14e:	20 49       	sbci	r18, 0x90	; 144
     150:	6e 74       	andi	r22, 0x4E	; 78
     152:	65 72       	andi	r22, 0x25	; 37
     154:	6e 61       	ori	r22, 0x1E	; 30
     156:	74 69       	ori	r23, 0x94	; 148
     158:	6f 6e       	ori	r22, 0xEF	; 239
     15a:	61 6c       	ori	r22, 0xC1	; 193
     15c:	20 28       	or	r2, r0
     15e:	43 43       	sbci	r20, 0x33	; 51
     160:	20 42       	sbci	r18, 0x20	; 32
     162:	59 2d       	mov	r21, r9
     164:	4e 43       	sbci	r20, 0x3E	; 62
     166:	20 34       	cpi	r18, 0x40	; 64
     168:	2e 30       	cpi	r18, 0x0E	; 14
     16a:	29 0a       	sbc	r2, r25
     16c:	04 20       	Address 0x000000000000016c is out of bounds.
.word	0xffff	; ????

0000016d <prompt>:
     16d:	20 4f       	sbci	r18, 0xF0	; 240
     16f:	6b 00       	.word	0x006b	; ????
     171:	04 20       	Address 0x0000000000000171 is out of bounds.
.word	0xffff	; ????

00000172 <question>:
     172:	20 3f       	cpi	r18, 0xF0	; 240
     174:	3f 00       	.word	0x003f	; ????
     176:	0c 20       	Address 0x0000000000000176 is out of bounds.
.word	0xffff	; ????

00000177 <undefined>:
     177:	20 75       	andi	r18, 0x50	; 80
     179:	6e 64       	ori	r22, 0x4E	; 78
     17b:	65 66       	ori	r22, 0x65	; 101
     17d:	69 6e       	ori	r22, 0xE9	; 233
     17f:	65 64       	ori	r22, 0x45	; 69
     181:	3f 00       	.word	0x003f	; ????
     183:	0c 20       	Address 0x0000000000000183 is out of bounds.
.word	0xffff	; ????

00000184 <exception>:
     184:	20 65       	ori	r18, 0x50	; 80
     186:	78 63       	ori	r23, 0x38	; 56
     188:	65 70       	andi	r22, 0x05	; 5
     18a:	74 69       	ori	r23, 0x94	; 148
     18c:	6f 6e       	ori	r22, 0xEF	; 239
     18e:	21 00       	.word	0x0021	; ????
     190:	0a 20       	Address 0x0000000000000190 is out of bounds.
.word	0xffff	; ????

00000191 <abort>:
     191:	20 61       	ori	r18, 0x10	; 16
     193:	62 6f       	ori	r22, 0xF2	; 242
     195:	72 74       	andi	r23, 0x42	; 66
     197:	65 64       	ori	r22, 0x45	; 69
     199:	2e 00       	.word	0x002e	; ????

0000019b <roullete>:
     19b:	00 00       	nop
     19d:	20 00       	.word	0x0020	; ????
     19f:	0f 00       	.word	0x000f	; ????
     1a1:	13 00       	.word	0x0013	; ????
     1a3:	04 00       	.word	0x0004	; ????
     1a5:	15 00       	.word	0x0015	; ????
     1a7:	02 00       	.word	0x0002	; ????
     1a9:	19 00       	.word	0x0019	; ????
     1ab:	11 00       	.word	0x0011	; ????
     1ad:	22 00       	.word	0x0022	; ????
     1af:	06 00       	.word	0x0006	; ????
     1b1:	1b 00       	.word	0x001b	; ????
     1b3:	0d 00       	.word	0x000d	; ????
     1b5:	24 00       	.word	0x0024	; ????
     1b7:	0b 00       	.word	0x000b	; ????
     1b9:	1e 00       	.word	0x001e	; ????
     1bb:	08 00       	.word	0x0008	; ????
     1bd:	17 00       	.word	0x0017	; ????
     1bf:	0a 00       	.word	0x000a	; ????
     1c1:	05 00       	.word	0x0005	; ????
     1c3:	18 00       	.word	0x0018	; ????
     1c5:	10 00       	.word	0x0010	; ????
     1c7:	21 00       	.word	0x0021	; ????
     1c9:	01 00       	.word	0x0001	; ????
     1cb:	14 00       	.word	0x0014	; ????
     1cd:	0e 00       	.word	0x000e	; ????
     1cf:	1f 00       	.word	0x001f	; ????
     1d1:	09 00       	.word	0x0009	; ????
     1d3:	16 00       	.word	0x0016	; ????
     1d5:	12 00       	.word	0x0012	; ????
     1d7:	1d 00       	.word	0x001d	; ????
     1d9:	07 00       	.word	0x0007	; ????
     1db:	1c 00       	.word	0x001c	; ????
     1dd:	0c 00       	.word	0x000c	; ????
     1df:	23 00       	.word	0x0023	; ????
     1e1:	03 00       	.word	0x0003	; ????
     1e3:	1a 00       	.word	0x001a	; ????
	...

000001e6 <__forth__>:
     1e6:	00 00       	nop
     1e8:	04 45       	sbci	r16, 0x54	; 84
     1ea:	4e 44       	sbci	r20, 0x4E	; 78
     1ec:	53 20       	and	r5, r3

000001ee <ENDS>:
	...

000001f0 <_unnest>:
     1f0:	fd 91       	ld	r31, X+
     1f2:	ed 91       	ld	r30, X+

000001f4 <_next>:
     1f4:	ee 0f       	add	r30, r30
     1f6:	ff 1f       	adc	r31, r31
     1f8:	45 91       	lpm	r20, Z+
     1fa:	55 91       	lpm	r21, Z+
     1fc:	f7 95       	ror	r31
     1fe:	e7 95       	ror	r30

00000200 <_void>:
     200:	74 2e       	mov	r7, r20
     202:	75 2a       	or	r7, r21
     204:	21 f0       	breq	.+8      	; 0x20e <_jump>

00000206 <_nest>:
     206:	ee 93       	st	-X, r30
     208:	fe 93       	st	-X, r31
     20a:	fa 01       	movw	r30, r20
     20c:	f3 cf       	rjmp	.-26     	; 0x1f4 <_next>

0000020e <_jump>:
     20e:	09 94       	ijmp

00000210 <_link>:
     210:	ef cf       	rjmp	.-34     	; 0x1f0 <_unnest>

00000212 <is_KEY>:
     212:	e6 01       	movw	r28, r12
     214:	03 4b       	sbci	r16, 0xB3	; 179
     216:	45 59       	subi	r20, 0x95	; 149

00000218 <KEY>:
     218:	00 00       	nop
     21a:	5f 9b       	sbis	0x0b, 7	; 11
     21c:	fe cf       	rjmp	.-4      	; 0x21a <KEY+0x2>
     21e:	8a 93       	st	-Y, r24
     220:	9a 93       	st	-Y, r25
     222:	8c b1       	in	r24, 0x0c	; 12
     224:	99 27       	eor	r25, r25
     226:	0c 94 08 01 	jmp	0x210	; 0x210 <_link>

0000022a <is_QKEY>:
     22a:	12 02       	muls	r17, r18
     22c:	04 4b       	sbci	r16, 0xB4	; 180
     22e:	45 59       	subi	r20, 0x95	; 149
     230:	3f 20       	and	r3, r15

00000232 <QKEY>:
     232:	00 00       	nop
     234:	5f 9b       	sbis	0x0b, 7	; 11
     236:	68 c0       	rjmp	.+208    	; 0x308 <_iffalse>
     238:	5c c0       	rjmp	.+184    	; 0x2f2 <_iftrue>

0000023a <is_EMIT>:
     23a:	2a 02       	muls	r18, r26
     23c:	04 45       	sbci	r16, 0x54	; 84
     23e:	4d 49       	sbci	r20, 0x9D	; 157
     240:	54 20       	and	r5, r4

00000242 <EMIT>:
     242:	00 00       	nop
     244:	5d 9b       	sbis	0x0b, 5	; 11
     246:	fe cf       	rjmp	.-4      	; 0x244 <EMIT+0x2>
     248:	8c b9       	out	0x0c, r24	; 12
     24a:	99 91       	ld	r25, Y+
     24c:	89 91       	ld	r24, Y+
     24e:	0c 94 08 01 	jmp	0x210	; 0x210 <_link>

00000252 <is_QEMIT>:
     252:	3a 02       	muls	r19, r26
     254:	05 45       	sbci	r16, 0x55	; 85
     256:	4d 49       	sbci	r20, 0x9D	; 157
     258:	54 3f       	cpi	r21, 0xF4	; 244

0000025a <QEMIT>:
     25a:	00 00       	nop
     25c:	5d 9b       	sbis	0x0b, 5	; 11
     25e:	54 c0       	rjmp	.+168    	; 0x308 <_iffalse>
     260:	48 c0       	rjmp	.+144    	; 0x2f2 <_iftrue>

00000262 <is_ECTO>:
     262:	52 02       	muls	r21, r18
     264:	03 45       	sbci	r16, 0x53	; 83
     266:	43 21       	and	r20, r3

00000268 <ECTO>:
     268:	00 00       	nop
     26a:	79 91       	ld	r23, Y+
     26c:	69 91       	ld	r22, Y+

0000026e <_ee_write>:
     26e:	e1 99       	sbic	0x1c, 1	; 28
     270:	fe cf       	rjmp	.-4      	; 0x26e <_ee_write>
     272:	9f bb       	out	0x1f, r25	; 31
     274:	8e bb       	out	0x1e, r24	; 30
     276:	6d bb       	out	0x1d, r22	; 29
     278:	f8 94       	cli
     27a:	2f b6       	in	r2, 0x3f	; 63
     27c:	e2 9a       	sbi	0x1c, 2	; 28
     27e:	e1 9a       	sbi	0x1c, 1	; 28
     280:	2f be       	out	0x3f, r2	; 63
     282:	78 94       	sei
     284:	0c 94 08 01 	jmp	0x210	; 0x210 <_link>

00000288 <is_ECAT>:
     288:	62 02       	muls	r22, r18
     28a:	03 45       	sbci	r16, 0x53	; 83
     28c:	43 40       	sbci	r20, 0x03	; 3

0000028e <ECAT>:
     28e:	00 00       	nop
     290:	79 91       	ld	r23, Y+
     292:	69 91       	ld	r22, Y+

00000294 <_ee_read>:
     294:	e1 99       	sbic	0x1c, 1	; 28
     296:	fe cf       	rjmp	.-4      	; 0x294 <_ee_read>
     298:	9f bb       	out	0x1f, r25	; 31
     29a:	8e bb       	out	0x1e, r24	; 30
     29c:	e0 9a       	sbi	0x1c, 0	; 28
     29e:	8d b3       	in	r24, 0x1d	; 29
     2a0:	99 27       	eor	r25, r25
     2a2:	0c 94 08 01 	jmp	0x210	; 0x210 <_link>

000002a6 <is_PCAT>:
     2a6:	88 02       	muls	r24, r24
     2a8:	03 50       	subi	r16, 0x03	; 3
     2aa:	43 40       	sbci	r20, 0x03	; 3

000002ac <PCAT>:
	...

000002ae <_peek>:
     2ae:	fc 01       	movw	r30, r24
     2b0:	80 81       	ld	r24, Z
     2b2:	99 27       	eor	r25, r25
     2b4:	0c 94 08 01 	jmp	0x210	; 0x210 <_link>

000002b8 <is_PCTO>:
     2b8:	a6 02       	muls	r26, r22
     2ba:	03 50       	subi	r16, 0x03	; 3
     2bc:	43 21       	and	r20, r3

000002be <PCTO>:
	...

000002c0 <_poke>:
     2c0:	fc 01       	movw	r30, r24
     2c2:	80 83       	st	Z, r24
     2c4:	99 91       	ld	r25, Y+
     2c6:	89 91       	ld	r24, Y+
     2c8:	0c 94 08 01 	jmp	0x210	; 0x210 <_link>

000002cc <is_MILLIS>:
     2cc:	b8 02       	muls	r27, r24
     2ce:	06 4d       	sbci	r16, 0xD6	; 214
     2d0:	49 4c       	sbci	r20, 0xC9	; 201
     2d2:	4c 49       	sbci	r20, 0x9C	; 156
     2d4:	53 20       	and	r5, r3

000002d6 <MILLIS>:
     2d6:	00 00       	nop
     2d8:	8a 93       	st	-Y, r24
     2da:	9a 93       	st	-Y, r25
     2dc:	84 2d       	mov	r24, r4
     2de:	95 2d       	mov	r25, r5
     2e0:	0c 94 08 01 	jmp	0x210	; 0x210 <_link>

000002e4 <is_FTRUE>:
     2e4:	cc 02       	muls	r28, r28
     2e6:	04 54       	subi	r16, 0x44	; 68
     2e8:	52 55       	subi	r21, 0x52	; 82
     2ea:	45 20       	and	r4, r5

000002ec <FTRUE>:
     2ec:	00 00       	nop
     2ee:	8a 93       	st	-Y, r24
     2f0:	9a 93       	st	-Y, r25

000002f2 <_iftrue>:
     2f2:	8f ef       	ldi	r24, 0xFF	; 255
     2f4:	9f ef       	ldi	r25, 0xFF	; 255
     2f6:	0c 94 08 01 	jmp	0x210	; 0x210 <_link>

000002fa <is_FFALSE>:
     2fa:	e4 02       	muls	r30, r20
     2fc:	05 46       	sbci	r16, 0x65	; 101
     2fe:	41 4c       	sbci	r20, 0xC1	; 193
     300:	53 45       	sbci	r21, 0x53	; 83

00000302 <FFALSE>:
     302:	00 00       	nop
     304:	8a 93       	st	-Y, r24
     306:	9a 93       	st	-Y, r25

00000308 <_iffalse>:
     308:	88 27       	eor	r24, r24
     30a:	99 27       	eor	r25, r25
     30c:	0c 94 08 01 	jmp	0x210	; 0x210 <_link>

00000310 <is_ZEQU>:
     310:	fa 02       	muls	r31, r26
     312:	02 30       	cpi	r16, 0x02	; 2
     314:	3d 20       	and	r3, r13

00000316 <ZEQU>:
     316:	00 00       	nop
     318:	89 2b       	or	r24, r25
     31a:	59 f3       	breq	.-42     	; 0x2f2 <_iftrue>
     31c:	a9 f7       	brne	.-22     	; 0x308 <_iffalse>
     31e:	0c 94 08 01 	jmp	0x210	; 0x210 <_link>

00000322 <is_ZLTH>:
     322:	10 03       	mulsu	r17, r16
     324:	02 30       	cpi	r16, 0x02	; 2
     326:	3c 20       	and	r3, r12

00000328 <ZLTH>:
     328:	00 00       	nop
     32a:	90 78       	andi	r25, 0x80	; 128
     32c:	11 f7       	brne	.-60     	; 0x2f2 <_iftrue>
     32e:	61 f3       	breq	.-40     	; 0x308 <_iffalse>
     330:	0c 94 08 01 	jmp	0x210	; 0x210 <_link>

00000334 <is_UMLESS>:
     334:	22 03       	mulsu	r18, r18
     336:	02 55       	subi	r16, 0x52	; 82
     338:	3c 20       	and	r3, r12

0000033a <UMLESS>:
     33a:	00 00       	nop
     33c:	79 91       	ld	r23, Y+
     33e:	69 91       	ld	r22, Y+
     340:	88 94       	clc
     342:	68 17       	cp	r22, r24
     344:	79 07       	cpc	r23, r25
     346:	0c f0       	brlt	.+2      	; 0x34a <UMLESS+0x10>
     348:	df cf       	rjmp	.-66     	; 0x308 <_iffalse>
     34a:	d3 cf       	rjmp	.-90     	; 0x2f2 <_iftrue>
     34c:	0c 94 08 01 	jmp	0x210	; 0x210 <_link>

00000350 <is_UMPLUS>:
     350:	34 03       	mulsu	r19, r20
     352:	03 55       	subi	r16, 0x53	; 83
     354:	4d 2b       	or	r20, r29

00000356 <UMPLUS>:
     356:	00 00       	nop
     358:	79 91       	ld	r23, Y+
     35a:	69 91       	ld	r22, Y+
     35c:	88 94       	clc
     35e:	86 0f       	add	r24, r22
     360:	97 1f       	adc	r25, r23
     362:	8a 93       	st	-Y, r24
     364:	9a 93       	st	-Y, r25
     366:	99 27       	eor	r25, r25
     368:	88 27       	eor	r24, r24
     36a:	08 f4       	brcc	.+2      	; 0x36e <UMPLUS+0x18>
     36c:	83 95       	inc	r24
     36e:	0c 94 08 01 	jmp	0x210	; 0x210 <_link>

00000372 <is_TO>:
     372:	50 03       	mulsu	r21, r16
     374:	01 21       	and	r16, r1

00000376 <TO>:
     376:	00 00       	nop
     378:	fc 01       	movw	r30, r24
     37a:	99 91       	ld	r25, Y+
     37c:	89 91       	ld	r24, Y+
     37e:	81 93       	st	Z+, r24
     380:	91 93       	st	Z+, r25
     382:	99 91       	ld	r25, Y+
     384:	89 91       	ld	r24, Y+
     386:	0c 94 08 01 	jmp	0x210	; 0x210 <_link>

0000038a <is_AT>:
     38a:	72 03       	mulsu	r23, r18
     38c:	01 40       	sbci	r16, 0x01	; 1

0000038e <AT>:
     38e:	00 00       	nop
     390:	fc 01       	movw	r30, r24
     392:	81 91       	ld	r24, Z+
     394:	91 91       	ld	r25, Z+
     396:	0c 94 08 01 	jmp	0x210	; 0x210 <_link>

0000039a <is_ATAT>:
     39a:	8a 03       	fmulsu	r16, r18
     39c:	02 40       	sbci	r16, 0x02	; 2
     39e:	40 20       	and	r4, r0

000003a0 <ATAT>:
     3a0:	00 00       	nop
     3a2:	fc 01       	movw	r30, r24
     3a4:	ee 0f       	add	r30, r30
     3a6:	ff 1f       	adc	r31, r31
     3a8:	85 91       	lpm	r24, Z+
     3aa:	95 91       	lpm	r25, Z+
     3ac:	f7 95       	ror	r31
     3ae:	e7 95       	ror	r30
     3b0:	0c 94 08 01 	jmp	0x210	; 0x210 <_link>

000003b4 <is_TOR>:
     3b4:	9a 03       	fmulsu	r17, r18
     3b6:	22 3e       	cpi	r18, 0xE2	; 226
     3b8:	52 20       	and	r5, r2

000003ba <TOR>:
     3ba:	00 00       	nop
     3bc:	7d 91       	ld	r23, X+
     3be:	6d 91       	ld	r22, X+
     3c0:	8e 93       	st	-X, r24
     3c2:	9e 93       	st	-X, r25
     3c4:	6e 93       	st	-X, r22
     3c6:	7e 93       	st	-X, r23
     3c8:	99 91       	ld	r25, Y+
     3ca:	89 91       	ld	r24, Y+
     3cc:	0c 94 08 01 	jmp	0x210	; 0x210 <_link>

000003d0 <is_RTO>:
     3d0:	b4 03       	fmuls	r19, r20
     3d2:	22 52       	subi	r18, 0x22	; 34
     3d4:	3e 20       	and	r3, r14

000003d6 <RTO>:
     3d6:	00 00       	nop
     3d8:	8a 93       	st	-Y, r24
     3da:	9a 93       	st	-Y, r25
     3dc:	7d 91       	ld	r23, X+
     3de:	6d 91       	ld	r22, X+
     3e0:	9d 91       	ld	r25, X+
     3e2:	8d 91       	ld	r24, X+
     3e4:	6e 93       	st	-X, r22
     3e6:	7e 93       	st	-X, r23
     3e8:	0c 94 08 01 	jmp	0x210	; 0x210 <_link>

000003ec <is_RAT>:
     3ec:	d0 03       	fmuls	r21, r16
     3ee:	22 52       	subi	r18, 0x22	; 34
     3f0:	40 20       	and	r4, r0

000003f2 <RAT>:
     3f2:	00 00       	nop
     3f4:	8a 93       	st	-Y, r24
     3f6:	9a 93       	st	-Y, r25
     3f8:	7d 91       	ld	r23, X+
     3fa:	6d 91       	ld	r22, X+
     3fc:	9d 91       	ld	r25, X+
     3fe:	8d 91       	ld	r24, X+
     400:	8e 93       	st	-X, r24
     402:	9e 93       	st	-X, r25
     404:	6e 93       	st	-X, r22
     406:	7e 93       	st	-X, r23
     408:	0c 94 08 01 	jmp	0x210	; 0x210 <_link>

0000040c <is_RSTO>:
     40c:	ec 03       	fmulsu	r22, r20
     40e:	03 52       	subi	r16, 0x23	; 35
     410:	53 21       	and	r21, r3

00000412 <RSTO>:
     412:	00 00       	nop
     414:	dc 01       	movw	r26, r24
     416:	99 91       	ld	r25, Y+
     418:	89 91       	ld	r24, Y+
     41a:	0c 94 08 01 	jmp	0x210	; 0x210 <_link>

0000041e <is_PSTO>:
     41e:	0c 04       	cpc	r0, r12
     420:	03 50       	subi	r16, 0x03	; 3
     422:	53 21       	and	r21, r3

00000424 <PSTO>:
     424:	00 00       	nop
     426:	ec 01       	movw	r28, r24
     428:	99 91       	ld	r25, Y+
     42a:	89 91       	ld	r24, Y+
     42c:	0c 94 08 01 	jmp	0x210	; 0x210 <_link>

00000430 <is_RSAT>:
     430:	1e 04       	cpc	r1, r14
     432:	03 52       	subi	r16, 0x23	; 35
     434:	53 40       	sbci	r21, 0x03	; 3

00000436 <RSAT>:
     436:	00 00       	nop
     438:	8a 93       	st	-Y, r24
     43a:	9a 93       	st	-Y, r25
     43c:	cd 01       	movw	r24, r26
     43e:	0c 94 08 01 	jmp	0x210	; 0x210 <_link>

00000442 <is_PSAT>:
     442:	30 04       	cpc	r3, r0
     444:	03 50       	subi	r16, 0x03	; 3
     446:	53 40       	sbci	r21, 0x03	; 3

00000448 <PSAT>:
     448:	00 00       	nop
     44a:	8a 93       	st	-Y, r24
     44c:	9a 93       	st	-Y, r25
     44e:	ce 01       	movw	r24, r28
     450:	0c 94 08 01 	jmp	0x210	; 0x210 <_link>

00000454 <is_DROP>:
     454:	42 04       	cpc	r4, r2
     456:	04 44       	sbci	r16, 0x44	; 68
     458:	52 4f       	sbci	r21, 0xF2	; 242
     45a:	50 20       	and	r5, r0

0000045c <DROP>:
	...

0000045e <PULL>:
     45e:	99 91       	ld	r25, Y+
     460:	89 91       	ld	r24, Y+
     462:	0c 94 08 01 	jmp	0x210	; 0x210 <_link>

00000466 <is_DUP>:
     466:	54 04       	cpc	r5, r4
     468:	03 44       	sbci	r16, 0x43	; 67
     46a:	55 50       	subi	r21, 0x05	; 5

0000046c <DUP>:
	...

0000046e <PUSH>:
     46e:	8a 93       	st	-Y, r24
     470:	9a 93       	st	-Y, r25
     472:	0c 94 08 01 	jmp	0x210	; 0x210 <_link>

00000476 <is_SWAP>:
     476:	66 04       	cpc	r6, r6
     478:	04 53       	subi	r16, 0x34	; 52
     47a:	57 41       	sbci	r21, 0x17	; 23
     47c:	50 20       	and	r5, r0

0000047e <SWAP>:
     47e:	00 00       	nop
     480:	79 91       	ld	r23, Y+
     482:	69 91       	ld	r22, Y+
     484:	8a 93       	st	-Y, r24
     486:	9a 93       	st	-Y, r25
     488:	cb 01       	movw	r24, r22
     48a:	0c 94 08 01 	jmp	0x210	; 0x210 <_link>

0000048e <is_OVER>:
     48e:	76 04       	cpc	r7, r6
     490:	04 4f       	sbci	r16, 0xF4	; 244
     492:	56 45       	sbci	r21, 0x56	; 86
     494:	52 20       	and	r5, r2

00000496 <OVER>:
     496:	00 00       	nop
     498:	79 91       	ld	r23, Y+
     49a:	69 91       	ld	r22, Y+
     49c:	6a 93       	st	-Y, r22
     49e:	7a 93       	st	-Y, r23
     4a0:	8a 93       	st	-Y, r24
     4a2:	9a 93       	st	-Y, r25
     4a4:	cb 01       	movw	r24, r22
     4a6:	0c 94 08 01 	jmp	0x210	; 0x210 <_link>

000004aa <is_ZDUP>:
     4aa:	8e 04       	cpc	r8, r14
     4ac:	04 3f       	cpi	r16, 0xF4	; 244
     4ae:	44 55       	subi	r20, 0x54	; 84
     4b0:	50 20       	and	r5, r0

000004b2 <ZDUP>:
     4b2:	00 00       	nop
     4b4:	89 2b       	or	r24, r25
     4b6:	11 f0       	breq	.+4      	; 0x4bc <ZDUP+0xa>
     4b8:	8a 93       	st	-Y, r24
     4ba:	9a 93       	st	-Y, r25
     4bc:	0c 94 08 01 	jmp	0x210	; 0x210 <_link>

000004c0 <is_LTHAN>:
     4c0:	aa 04       	cpc	r10, r10
     4c2:	01 3c       	cpi	r16, 0xC1	; 193

000004c4 <LTHAN>:
     4c4:	00 00       	nop
     4c6:	79 91       	ld	r23, Y+
     4c8:	69 91       	ld	r22, Y+
     4ca:	86 17       	cp	r24, r22
     4cc:	97 07       	cpc	r25, r23
     4ce:	0c f0       	brlt	.+2      	; 0x4d2 <LTHAN+0xe>
     4d0:	1b cf       	rjmp	.-458    	; 0x308 <_iffalse>
     4d2:	0f cf       	rjmp	.-482    	; 0x2f2 <_iftrue>
     4d4:	0c 94 08 01 	jmp	0x210	; 0x210 <_link>

000004d8 <is_PLUS>:
     4d8:	c0 04       	cpc	r12, r0
     4da:	01 2b       	or	r16, r17

000004dc <PLUS>:
     4dc:	00 00       	nop
     4de:	79 91       	ld	r23, Y+
     4e0:	69 91       	ld	r22, Y+
     4e2:	88 94       	clc
     4e4:	86 0f       	add	r24, r22
     4e6:	97 1f       	adc	r25, r23
     4e8:	0c 94 08 01 	jmp	0x210	; 0x210 <_link>

000004ec <is_MINUS>:
     4ec:	d8 04       	cpc	r13, r8
     4ee:	01 2d       	mov	r16, r1

000004f0 <MINUS>:
     4f0:	00 00       	nop
     4f2:	79 91       	ld	r23, Y+
     4f4:	69 91       	ld	r22, Y+
     4f6:	88 94       	clc
     4f8:	68 1b       	sub	r22, r24
     4fa:	79 0b       	sbc	r23, r25
     4fc:	cb 01       	movw	r24, r22
     4fe:	0c 94 08 01 	jmp	0x210	; 0x210 <_link>

00000502 <is_NAND>:
     502:	ec 04       	cpc	r14, r12
     504:	04 4e       	sbci	r16, 0xE4	; 228
     506:	41 4e       	sbci	r20, 0xE1	; 225
     508:	44 20       	and	r4, r4

0000050a <NAND>:
     50a:	00 00       	nop
     50c:	79 91       	ld	r23, Y+
     50e:	69 91       	ld	r22, Y+
     510:	86 23       	and	r24, r22
     512:	97 23       	and	r25, r23
     514:	60 95       	com	r22
     516:	70 95       	com	r23
     518:	0c 94 08 01 	jmp	0x210	; 0x210 <_link>

0000051c <is_AND>:
     51c:	02 05       	cpc	r16, r2
     51e:	03 41       	sbci	r16, 0x13	; 19
     520:	4e 44       	sbci	r20, 0x4E	; 78

00000522 <AND>:
     522:	00 00       	nop
     524:	79 91       	ld	r23, Y+
     526:	69 91       	ld	r22, Y+
     528:	86 23       	and	r24, r22
     52a:	97 23       	and	r25, r23
     52c:	0c 94 08 01 	jmp	0x210	; 0x210 <_link>

00000530 <is_OR>:
     530:	1c 05       	cpc	r17, r12
     532:	02 4f       	sbci	r16, 0xF2	; 242
     534:	52 20       	and	r5, r2

00000536 <OR>:
     536:	00 00       	nop
     538:	79 91       	ld	r23, Y+
     53a:	69 91       	ld	r22, Y+
     53c:	86 2b       	or	r24, r22
     53e:	97 2b       	or	r25, r23
     540:	0c 94 08 01 	jmp	0x210	; 0x210 <_link>

00000544 <is_XOR>:
     544:	30 05       	cpc	r19, r0
     546:	03 58       	subi	r16, 0x83	; 131
     548:	4f 52       	subi	r20, 0x2F	; 47

0000054a <XOR>:
     54a:	00 00       	nop
     54c:	79 91       	ld	r23, Y+
     54e:	69 91       	ld	r22, Y+
     550:	86 27       	eor	r24, r22
     552:	97 27       	eor	r25, r23
     554:	0c 94 08 01 	jmp	0x210	; 0x210 <_link>

00000558 <is_INVERT>:
     558:	44 05       	cpc	r20, r4
     55a:	06 49       	sbci	r16, 0x96	; 150
     55c:	4e 56       	subi	r20, 0x6E	; 110
     55e:	45 52       	subi	r20, 0x25	; 37
     560:	54 20       	and	r5, r4

00000562 <INVERT>:
	...

00000564 <_inv>:
     564:	80 95       	com	r24
     566:	90 95       	com	r25
     568:	0c 94 08 01 	jmp	0x210	; 0x210 <_link>

0000056c <is_NEGATE>:
     56c:	58 05       	cpc	r21, r8
     56e:	06 4e       	sbci	r16, 0xE6	; 230
     570:	45 47       	sbci	r20, 0x75	; 117
     572:	41 54       	subi	r20, 0x41	; 65
     574:	45 20       	and	r4, r5

00000576 <NEGATE>:
	...

00000578 <_neg>:
     578:	81 95       	neg	r24
     57a:	91 95       	neg	r25
     57c:	0c 94 08 01 	jmp	0x210	; 0x210 <_link>

00000580 <is_SHL>:
     580:	6c 05       	cpc	r22, r12
     582:	02 32       	cpi	r16, 0x22	; 34
     584:	2a 20       	and	r2, r10

00000586 <SHL>:
	...

00000588 <_shl>:
     588:	88 94       	clc
     58a:	88 0f       	add	r24, r24
     58c:	99 1f       	adc	r25, r25
     58e:	0c 94 08 01 	jmp	0x210	; 0x210 <_link>

00000592 <is_SHR>:
     592:	80 05       	cpc	r24, r0
     594:	02 32       	cpi	r16, 0x22	; 34
     596:	2f 20       	and	r2, r15

00000598 <SHR>:
	...

0000059a <_shr>:
     59a:	88 94       	clc
     59c:	86 95       	lsr	r24
     59e:	97 95       	ror	r25
     5a0:	0c 94 08 01 	jmp	0x210	; 0x210 <_link>

000005a4 <is_ENDIAN>:
     5a4:	92 05       	cpc	r25, r2
     5a6:	02 3e       	cpi	r16, 0xE2	; 226
     5a8:	3c 20       	and	r3, r12

000005aa <ENDIAN>:
     5aa:	00 00       	nop
     5ac:	48 2f       	mov	r20, r24
     5ae:	89 2f       	mov	r24, r25
     5b0:	94 2f       	mov	r25, r20
     5b2:	0c 94 08 01 	jmp	0x210	; 0x210 <_link>

000005b6 <is_BRANCH>:
     5b6:	a4 05       	cpc	r26, r4
     5b8:	06 42       	sbci	r16, 0x26	; 38
     5ba:	52 41       	sbci	r21, 0x12	; 18
     5bc:	4e 43       	sbci	r20, 0x3E	; 62
     5be:	48 20       	and	r4, r8

000005c0 <BRANCH>:
	...

000005c2 <_branch>:
     5c2:	fd 91       	ld	r31, X+
     5c4:	ed 91       	ld	r30, X+
     5c6:	ee 0f       	add	r30, r30
     5c8:	ff 1f       	adc	r31, r31
     5ca:	65 91       	lpm	r22, Z+
     5cc:	75 91       	lpm	r23, Z+
     5ce:	f7 95       	ror	r31
     5d0:	e7 95       	ror	r30
     5d2:	6e 93       	st	-X, r22
     5d4:	7e 93       	st	-X, r23
     5d6:	0c 94 08 01 	jmp	0x210	; 0x210 <_link>

000005da <is_ZBRANCH>:
     5da:	b6 05       	cpc	r27, r6
     5dc:	07 30       	cpi	r16, 0x07	; 7
     5de:	42 52       	subi	r20, 0x22	; 34
     5e0:	41 4e       	sbci	r20, 0xE1	; 225
     5e2:	43 48       	sbci	r20, 0x83	; 131

000005e4 <ZBRANCH>:
     5e4:	00 00       	nop
     5e6:	bc 01       	movw	r22, r24
     5e8:	99 91       	ld	r25, Y+
     5ea:	89 91       	ld	r24, Y+
     5ec:	67 2b       	or	r22, r23
     5ee:	49 f3       	breq	.-46     	; 0x5c2 <_branch>
     5f0:	fd 91       	ld	r31, X+
     5f2:	ed 91       	ld	r30, X+
     5f4:	32 96       	adiw	r30, 0x02	; 2
     5f6:	ee 93       	st	-X, r30
     5f8:	fe 93       	st	-X, r31
     5fa:	0c 94 08 01 	jmp	0x210	; 0x210 <_link>

000005fe <is_LIT>:
     5fe:	da 05       	cpc	r29, r10
     600:	03 4c       	sbci	r16, 0xC3	; 195
     602:	49 54       	subi	r20, 0x49	; 73

00000604 <LIT>:
     604:	00 00       	nop
     606:	8a 93       	st	-Y, r24
     608:	9a 93       	st	-Y, r25
     60a:	fd 91       	ld	r31, X+
     60c:	ed 91       	ld	r30, X+
     60e:	ee 0f       	add	r30, r30
     610:	ff 1f       	adc	r31, r31
     612:	85 91       	lpm	r24, Z+
     614:	95 91       	lpm	r25, Z+
     616:	f7 95       	ror	r31
     618:	e7 95       	ror	r30
     61a:	ee 93       	st	-X, r30
     61c:	fe 93       	st	-X, r31
     61e:	0c 94 08 01 	jmp	0x210	; 0x210 <_link>

00000622 <is_ALIGNED>:
     622:	fe 05       	cpc	r31, r14
     624:	07 41       	sbci	r16, 0x17	; 23
     626:	4c 49       	sbci	r20, 0x9C	; 156
     628:	47 4e       	sbci	r20, 0xE7	; 231
     62a:	45 44       	sbci	r20, 0x45	; 69

0000062c <ALIGNED>:
     62c:	00 00       	nop
     62e:	01 96       	adiw	r24, 0x01	; 1
     630:	8f 7f       	andi	r24, 0xFF	; 255
     632:	0c 94 08 01 	jmp	0x210	; 0x210 <_link>

00000636 <is_CELL>:
     636:	22 06       	cpc	r2, r18
     638:	04 43       	sbci	r16, 0x34	; 52
     63a:	45 4c       	sbci	r20, 0xC5	; 197
     63c:	4c 20       	and	r4, r12

0000063e <CELL>:
     63e:	00 00       	nop
     640:	8a 93       	st	-Y, r24
     642:	9a 93       	st	-Y, r25
     644:	82 e0       	ldi	r24, 0x02	; 2
     646:	99 27       	eor	r25, r25
     648:	0c 94 08 01 	jmp	0x210	; 0x210 <_link>

0000064c <is_CTO>:
     64c:	36 06       	cpc	r3, r22
     64e:	02 43       	sbci	r16, 0x32	; 50
     650:	21 20       	and	r2, r1

00000652 <CTO>:
     652:	00 00       	nop
     654:	fc 01       	movw	r30, r24
     656:	99 91       	ld	r25, Y+
     658:	89 91       	ld	r24, Y+
     65a:	80 83       	st	Z, r24
     65c:	99 91       	ld	r25, Y+
     65e:	89 91       	ld	r24, Y+
     660:	0c 94 08 01 	jmp	0x210	; 0x210 <_link>

00000664 <is_CAT>:
     664:	4c 06       	cpc	r4, r28
     666:	02 43       	sbci	r16, 0x32	; 50
     668:	40 20       	and	r4, r0

0000066a <CAT>:
     66a:	00 00       	nop
     66c:	fc 01       	movw	r30, r24
     66e:	80 81       	ld	r24, Z
     670:	99 27       	eor	r25, r25
     672:	0c 94 08 01 	jmp	0x210	; 0x210 <_link>

00000676 <is_ZERO>:
     676:	64 06       	cpc	r6, r20
     678:	01 30       	cpi	r16, 0x01	; 1

0000067a <ZERO>:
     67a:	00 00       	nop
     67c:	8a 93       	st	-Y, r24
     67e:	9a 93       	st	-Y, r25
     680:	88 27       	eor	r24, r24
     682:	99 27       	eor	r25, r25
     684:	0c 94 08 01 	jmp	0x210	; 0x210 <_link>

00000688 <is_ONE>:
     688:	76 06       	cpc	r7, r22
     68a:	01 31       	cpi	r16, 0x11	; 17

0000068c <ONE>:
     68c:	00 00       	nop
     68e:	8a 93       	st	-Y, r24
     690:	9a 93       	st	-Y, r25
     692:	99 27       	eor	r25, r25
     694:	81 e0       	ldi	r24, 0x01	; 1
     696:	0c 94 08 01 	jmp	0x210	; 0x210 <_link>

0000069a <is_TWO>:
     69a:	88 06       	cpc	r8, r24
     69c:	01 32       	cpi	r16, 0x21	; 33

0000069e <TWO>:
     69e:	00 00       	nop
     6a0:	8a 93       	st	-Y, r24
     6a2:	9a 93       	st	-Y, r25
     6a4:	99 27       	eor	r25, r25
     6a6:	82 e0       	ldi	r24, 0x02	; 2
     6a8:	0c 94 08 01 	jmp	0x210	; 0x210 <_link>

000006ac <is_ETO>:
     6ac:	9a 06       	cpc	r9, r26
     6ae:	02 45       	sbci	r16, 0x52	; 82
     6b0:	21 20       	and	r2, r1

000006b2 <ETO>:
     6b2:	96 04       	cpc	r9, r6
     6b4:	96 04       	cpc	r9, r6
     6b6:	68 02       	muls	r22, r24
     6b8:	8c 06       	cpc	r8, r28
     6ba:	dc 04       	cpc	r13, r12
     6bc:	ba 03       	fmulsu	r19, r18
     6be:	aa 05       	cpc	r26, r10
     6c0:	d6 03       	fmuls	r21, r22
     6c2:	68 02       	muls	r22, r24
     6c4:	ee 01       	movw	r28, r28

000006c6 <is_EAT>:
     6c6:	ac 06       	cpc	r10, r28
     6c8:	02 45       	sbci	r16, 0x52	; 82
     6ca:	40 20       	and	r4, r0

000006cc <EAT>:
     6cc:	6c 04       	cpc	r6, r12
     6ce:	8e 02       	muls	r24, r30
     6d0:	7e 04       	cpc	r7, r14
     6d2:	8e 02       	muls	r24, r30
     6d4:	04 06       	cpc	r0, r20
     6d6:	ff 00       	.word	0x00ff	; ????
     6d8:	22 05       	cpc	r18, r2
     6da:	aa 05       	cpc	r26, r10
     6dc:	7e 04       	cpc	r7, r14
     6de:	04 06       	cpc	r0, r20
     6e0:	ff 00       	.word	0x00ff	; ????
     6e2:	22 05       	cpc	r18, r2
     6e4:	36 05       	cpc	r19, r6
     6e6:	ee 01       	movw	r28, r28

000006e8 <is_NIP>:
     6e8:	c6 06       	cpc	r12, r22
     6ea:	03 4e       	sbci	r16, 0xE3	; 227
     6ec:	49 50       	subi	r20, 0x09	; 9

000006ee <NIP>:
     6ee:	7e 04       	cpc	r7, r14
     6f0:	5c 04       	cpc	r5, r12
     6f2:	ee 01       	movw	r28, r28

000006f4 <is_SWIP>:
     6f4:	e8 06       	cpc	r14, r24
     6f6:	04 53       	subi	r16, 0x34	; 52
     6f8:	57 49       	sbci	r21, 0x97	; 151
     6fa:	50 20       	and	r5, r0

000006fc <SWIP>:
     6fc:	ba 03       	fmulsu	r19, r18
     6fe:	7e 04       	cpc	r7, r14
     700:	d6 03       	fmuls	r21, r22
     702:	ee 01       	movw	r28, r28

00000704 <is_ROTU>:
     704:	f4 06       	cpc	r15, r20
     706:	03 52       	subi	r16, 0x23	; 35
     708:	4f 54       	subi	r20, 0x4F	; 79

0000070a <ROTU>:
     70a:	fc 06       	cpc	r15, r28
     70c:	7e 04       	cpc	r7, r14
     70e:	ee 01       	movw	r28, r28

00000710 <is_ROTD>:
     710:	04 07       	cpc	r16, r20
     712:	04 2d       	mov	r16, r4
     714:	52 4f       	sbci	r21, 0xF2	; 242
     716:	54 20       	and	r5, r4

00000718 <ROTD>:
     718:	7e 04       	cpc	r7, r14
     71a:	fc 06       	cpc	r15, r28
     71c:	ee 01       	movw	r28, r28

0000071e <is_TUCK>:
     71e:	10 07       	cpc	r17, r16
     720:	04 54       	subi	r16, 0x44	; 68
     722:	55 43       	sbci	r21, 0x35	; 53
     724:	4b 20       	and	r4, r11

00000726 <TUCK>:
     726:	7e 04       	cpc	r7, r14
     728:	96 04       	cpc	r9, r6
     72a:	ee 01       	movw	r28, r28

0000072c <is_FLIP>:
     72c:	1e 07       	cpc	r17, r30
     72e:	04 46       	sbci	r16, 0x64	; 100
     730:	4c 49       	sbci	r20, 0x9C	; 156
     732:	50 20       	and	r5, r0

00000734 <FLIP>:
     734:	7e 04       	cpc	r7, r14
     736:	fc 06       	cpc	r15, r28
     738:	7e 04       	cpc	r7, r14
     73a:	ee 01       	movw	r28, r28

0000073c <is_EQUAL>:
     73c:	2c 07       	cpc	r18, r28
     73e:	01 3d       	cpi	r16, 0xD1	; 209

00000740 <EQUAL>:
     740:	f0 04       	cpc	r15, r0
     742:	16 03       	mulsu	r17, r22
     744:	ee 01       	movw	r28, r28

00000746 <is_NOTEQUAL>:
     746:	3c 07       	cpc	r19, r28
     748:	02 3c       	cpi	r16, 0xC2	; 194
     74a:	3e 20       	and	r3, r14

0000074c <NOTEQUAL>:
     74c:	40 07       	cpc	r20, r16
     74e:	62 05       	cpc	r22, r2
     750:	ee 01       	movw	r28, r28

00000752 <is_GTHAN>:
     752:	46 07       	cpc	r20, r22
     754:	01 3e       	cpi	r16, 0xE1	; 225

00000756 <GTHAN>:
     756:	7e 04       	cpc	r7, r14
     758:	c4 04       	cpc	r12, r4
     75a:	ee 01       	movw	r28, r28

0000075c <is_ZEROGT>:
     75c:	52 07       	cpc	r21, r18
     75e:	02 30       	cpi	r16, 0x02	; 2
     760:	3e 20       	and	r3, r14

00000762 <ZEROGT>:
     762:	7a 06       	cpc	r7, r26
     764:	c4 04       	cpc	r12, r4
     766:	ee 01       	movw	r28, r28

00000768 <is_ZEROLT>:
     768:	5c 07       	cpc	r21, r28
     76a:	02 30       	cpi	r16, 0x02	; 2
     76c:	3c 20       	and	r3, r12

0000076e <ZEROLT>:
     76e:	7a 06       	cpc	r7, r26
     770:	7e 04       	cpc	r7, r14
     772:	c4 04       	cpc	r12, r4
     774:	ee 01       	movw	r28, r28

00000776 <is_CELLS>:
     776:	68 07       	cpc	r22, r24
     778:	05 43       	sbci	r16, 0x35	; 53
     77a:	45 4c       	sbci	r20, 0xC5	; 197
     77c:	4c 53       	subi	r20, 0x3C	; 60

0000077e <CELLS>:
     77e:	86 05       	cpc	r24, r6
     780:	ee 01       	movw	r28, r28

00000782 <is_CELLPLUS>:
     782:	76 07       	cpc	r23, r22
     784:	05 43       	sbci	r16, 0x35	; 53
     786:	45 4c       	sbci	r20, 0xC5	; 197
     788:	4c 2b       	or	r20, r28

0000078a <CELLPLUS>:
     78a:	3e 06       	cpc	r3, r30
     78c:	dc 04       	cpc	r13, r12
     78e:	ee 01       	movw	r28, r28

00000790 <is_CELLMINUS>:
     790:	82 07       	cpc	r24, r18
     792:	05 43       	sbci	r16, 0x35	; 53
     794:	45 4c       	sbci	r20, 0xC5	; 197
     796:	4c 2d       	mov	r20, r12

00000798 <CELLMINUS>:
     798:	3e 06       	cpc	r3, r30
     79a:	f0 04       	cpc	r15, r0
     79c:	ee 01       	movw	r28, r28

0000079e <is_ONEPLUS>:
     79e:	90 07       	cpc	r25, r16
     7a0:	02 31       	cpi	r16, 0x12	; 18
     7a2:	2b 20       	and	r2, r11

000007a4 <ONEPLUS>:
     7a4:	8c 06       	cpc	r8, r28
     7a6:	dc 04       	cpc	r13, r12
     7a8:	ee 01       	movw	r28, r28

000007aa <is_ONEMINUS>:
     7aa:	9e 07       	cpc	r25, r30
     7ac:	02 31       	cpi	r16, 0x12	; 18
     7ae:	2d 20       	and	r2, r13

000007b0 <ONEMINUS>:
     7b0:	8c 06       	cpc	r8, r28
     7b2:	f0 04       	cpc	r15, r0
     7b4:	ee 01       	movw	r28, r28

000007b6 <is_TWOPLUS>:
     7b6:	aa 07       	cpc	r26, r26
     7b8:	02 32       	cpi	r16, 0x22	; 34
     7ba:	2b 20       	and	r2, r11

000007bc <TWOPLUS>:
     7bc:	9e 06       	cpc	r9, r30
     7be:	dc 04       	cpc	r13, r12
     7c0:	ee 01       	movw	r28, r28

000007c2 <is_TWOMINUS>:
     7c2:	b6 07       	cpc	r27, r22
     7c4:	02 32       	cpi	r16, 0x22	; 34
     7c6:	2d 20       	and	r2, r13

000007c8 <TWOMINUS>:
     7c8:	9e 06       	cpc	r9, r30
     7ca:	f0 04       	cpc	r15, r0
     7cc:	ee 01       	movw	r28, r28

000007ce <is_PLUSTO>:
     7ce:	c2 07       	cpc	r28, r18
     7d0:	02 2b       	or	r16, r18
     7d2:	21 20       	and	r2, r1

000007d4 <PLUSTO>:
     7d4:	6c 04       	cpc	r6, r12
     7d6:	ba 03       	fmulsu	r19, r18
     7d8:	8e 03       	fmulsu	r16, r22
     7da:	dc 04       	cpc	r13, r12
     7dc:	d6 03       	fmuls	r21, r22
     7de:	76 03       	mulsu	r23, r22
     7e0:	ee 01       	movw	r28, r28

000007e2 <is_CHARPLUS>:
     7e2:	ce 07       	cpc	r28, r30
     7e4:	05 43       	sbci	r16, 0x35	; 53
     7e6:	48 41       	sbci	r20, 0x18	; 24
     7e8:	52 2b       	or	r21, r18

000007ea <CHARPLUS>:
     7ea:	a4 07       	cpc	r26, r20
     7ec:	ee 01       	movw	r28, r28

000007ee <is_CHARMINUS>:
     7ee:	e2 07       	cpc	r30, r18
     7f0:	05 43       	sbci	r16, 0x35	; 53
     7f2:	48 41       	sbci	r20, 0x18	; 24
     7f4:	52 2d       	mov	r21, r2

000007f6 <CHARMINUS>:
     7f6:	b0 07       	cpc	r27, r16
     7f8:	ee 01       	movw	r28, r28

000007fa <is_CHARS>:
     7fa:	ee 07       	cpc	r30, r30
     7fc:	05 43       	sbci	r16, 0x35	; 53
     7fe:	48 41       	sbci	r20, 0x18	; 24
     800:	52 53       	subi	r21, 0x32	; 50

00000802 <CHARS>:
     802:	ee 01       	movw	r28, r28

00000804 <is_TIB>:
     804:	fa 07       	cpc	r31, r26
     806:	03 54       	subi	r16, 0x43	; 67
     808:	49 42       	sbci	r20, 0x29	; 41

0000080a <TIB>:
     80a:	04 06       	cpc	r0, r20
     80c:	00 01       	movw	r0, r0
     80e:	ee 01       	movw	r28, r28
     810:	0c 94 08 01 	jmp	0x210	; 0x210 <_link>

00000814 <is_STATE>:
     814:	04 08       	sbc	r0, r4
     816:	05 53       	subi	r16, 0x35	; 53
     818:	54 41       	sbci	r21, 0x14	; 20
     81a:	54 45       	sbci	r21, 0x54	; 84

0000081c <STATE>:
     81c:	04 06       	cpc	r0, r20
     81e:	c8 01       	movw	r24, r16
     820:	ee 01       	movw	r28, r28

00000822 <is_BASE>:
     822:	14 08       	sbc	r1, r4
     824:	04 42       	sbci	r16, 0x24	; 36
     826:	41 53       	subi	r20, 0x31	; 49
     828:	45 20       	and	r4, r5

0000082a <BASE>:
     82a:	04 06       	cpc	r0, r20
     82c:	2a 08       	sbc	r2, r10
     82e:	ee 01       	movw	r28, r28

00000830 <is_CSP>:
     830:	22 08       	sbc	r2, r2
     832:	03 43       	sbci	r16, 0x33	; 51
     834:	53 50       	subi	r21, 0x03	; 3

00000836 <CSP>:
     836:	04 06       	cpc	r0, r20
     838:	d6 01       	movw	r26, r12
     83a:	ee 01       	movw	r28, r28

0000083c <is_EPP>:
     83c:	30 08       	sbc	r3, r0
     83e:	02 45       	sbci	r16, 0x52	; 82
     840:	50 20       	and	r5, r0

00000842 <EPP>:
     842:	04 06       	cpc	r0, r20
     844:	c2 01       	movw	r24, r4
     846:	ee 01       	movw	r28, r28

00000848 <is_DPP>:
     848:	3c 08       	sbc	r3, r12
     84a:	02 44       	sbci	r16, 0x42	; 66
     84c:	50 20       	and	r5, r0

0000084e <DPP>:
     84e:	04 06       	cpc	r0, r20
     850:	be 01       	movw	r22, r28
     852:	ee 01       	movw	r28, r28

00000854 <is_HPP>:
     854:	48 08       	sbc	r4, r8
     856:	02 48       	sbci	r16, 0x82	; 130
     858:	50 20       	and	r5, r0

0000085a <HPP>:
     85a:	04 06       	cpc	r0, r20
     85c:	c4 01       	movw	r24, r8
     85e:	ee 01       	movw	r28, r28

00000860 <is_UPP>:
     860:	54 08       	sbc	r5, r4
     862:	02 55       	subi	r16, 0x52	; 82
     864:	50 20       	and	r5, r0

00000866 <UPP>:
     866:	04 06       	cpc	r0, r20
     868:	c0 01       	movw	r24, r0
     86a:	ee 01       	movw	r28, r28

0000086c <is_BUFF>:
     86c:	60 08       	sbc	r6, r0
     86e:	04 42       	sbci	r16, 0x24	; 36
     870:	55 46       	sbci	r21, 0x65	; 101
     872:	46 20       	and	r4, r6

00000874 <BUFF>:
     874:	66 08       	sbc	r6, r6
     876:	7e 04       	cpc	r7, r14
     878:	f0 04       	cpc	r15, r0
     87a:	ee 01       	movw	r28, r28

0000087c <is_PAD>:
     87c:	6c 08       	sbc	r6, r12
     87e:	03 50       	subi	r16, 0x03	; 3
     880:	41 44       	sbci	r20, 0x41	; 65

00000882 <PAD>:
     882:	04 06       	cpc	r0, r20
     884:	48 00       	.word	0x0048	; ????
     886:	74 08       	sbc	r7, r4
     888:	ee 01       	movw	r28, r28

0000088a <is_DEPTH>:
     88a:	7c 08       	sbc	r7, r12
     88c:	05 44       	sbci	r16, 0x45	; 69
     88e:	45 50       	subi	r20, 0x05	; 5
     890:	54 48       	sbci	r21, 0x84	; 132

00000892 <DEPTH>:
     892:	48 04       	cpc	r4, r8
     894:	04 06       	cpc	r0, r20
     896:	90 01       	movw	r18, r0
     898:	f0 04       	cpc	r15, r0
     89a:	ee 01       	movw	r28, r28

0000089c <is_RDEPTH>:
     89c:	8a 08       	sbc	r8, r10
     89e:	06 52       	subi	r16, 0x26	; 38
     8a0:	44 45       	sbci	r20, 0x54	; 84
     8a2:	50 54       	subi	r21, 0x40	; 64
     8a4:	48 20       	and	r4, r8

000008a6 <RDEPTH>:
     8a6:	36 04       	cpc	r3, r6
     8a8:	04 06       	cpc	r0, r20
     8aa:	b4 01       	movw	r22, r8
     8ac:	f0 04       	cpc	r15, r0
     8ae:	ee 01       	movw	r28, r28

000008b0 <is_CURRENT>:
     8b0:	9c 08       	sbc	r9, r12
     8b2:	07 43       	sbci	r16, 0x37	; 55
     8b4:	55 52       	subi	r21, 0x25	; 37
     8b6:	52 45       	sbci	r21, 0x52	; 82
     8b8:	4e 54       	subi	r20, 0x4E	; 78

000008ba <CURRENT>:
     8ba:	04 06       	cpc	r0, r20
     8bc:	d8 01       	movw	r26, r16
     8be:	ee 01       	movw	r28, r28

000008c0 <is_CONTEXT>:
     8c0:	b0 08       	sbc	r11, r0
     8c2:	07 43       	sbci	r16, 0x37	; 55
     8c4:	4f 4e       	sbci	r20, 0xEF	; 239
     8c6:	54 45       	sbci	r21, 0x54	; 84
     8c8:	58 54       	subi	r21, 0x48	; 72

000008ca <CONTEXT>:
     8ca:	04 06       	cpc	r0, r20
     8cc:	da 01       	movw	r26, r20
     8ce:	ee 01       	movw	r28, r28

000008d0 <is_DEFINITIONS>:
     8d0:	c0 08       	sbc	r12, r0
     8d2:	0b 44       	sbci	r16, 0x4B	; 75
     8d4:	45 46       	sbci	r20, 0x65	; 101
     8d6:	49 4e       	sbci	r20, 0xE9	; 233
     8d8:	49 54       	subi	r20, 0x49	; 73
     8da:	49 4f       	sbci	r20, 0xF9	; 249
     8dc:	4e 53       	subi	r20, 0x3E	; 62

000008de <DEFINITIONS>:
     8de:	ca 08       	sbc	r12, r10
     8e0:	8e 03       	fmulsu	r16, r22
     8e2:	ba 08       	sbc	r11, r10
     8e4:	76 03       	mulsu	r23, r22
     8e6:	ee 01       	movw	r28, r28

000008e8 <is_LATEST>:
     8e8:	d0 08       	sbc	r13, r0
     8ea:	06 4c       	sbci	r16, 0xC6	; 198
     8ec:	41 54       	subi	r20, 0x41	; 65
     8ee:	45 53       	subi	r20, 0x35	; 53
     8f0:	54 20       	and	r5, r4

000008f2 <LATEST>:
     8f2:	04 06       	cpc	r0, r20
     8f4:	bc 01       	movw	r22, r24
     8f6:	ee 01       	movw	r28, r28

000008f8 <is_UHERE>:
     8f8:	e8 08       	sbc	r14, r8
     8fa:	05 55       	subi	r16, 0x55	; 85
     8fc:	48 45       	sbci	r20, 0x58	; 88
     8fe:	52 45       	sbci	r21, 0x52	; 82

00000900 <UHERE>:
     900:	5a 08       	sbc	r5, r10
     902:	8e 03       	fmulsu	r16, r22
     904:	ee 01       	movw	r28, r28

00000906 <is_HERE>:
     906:	f8 08       	sbc	r15, r8
     908:	04 48       	sbci	r16, 0x84	; 132
     90a:	45 52       	subi	r20, 0x25	; 37
     90c:	45 20       	and	r4, r5

0000090e <HERE>:
     90e:	4e 08       	sbc	r4, r14
     910:	8e 03       	fmulsu	r16, r22
     912:	ee 01       	movw	r28, r28

00000914 <is_ALLOT>:
     914:	06 09       	sbc	r16, r6
     916:	05 41       	sbci	r16, 0x15	; 21
     918:	4c 4c       	sbci	r20, 0xCC	; 204
     91a:	4f 54       	subi	r20, 0x4F	; 79

0000091c <ALLOT>:
     91c:	6c 04       	cpc	r6, r12
     91e:	5a 08       	sbc	r5, r10
     920:	8e 03       	fmulsu	r16, r22
     922:	dc 04       	cpc	r13, r12
     924:	5a 08       	sbc	r5, r10
     926:	76 03       	mulsu	r23, r22
     928:	4e 08       	sbc	r4, r14
     92a:	8e 03       	fmulsu	r16, r22
     92c:	dc 04       	cpc	r13, r12
     92e:	4e 08       	sbc	r4, r14
     930:	76 03       	mulsu	r23, r22
     932:	ee 01       	movw	r28, r28

00000934 <is_ALIGN>:
     934:	14 09       	sbc	r17, r4
     936:	05 41       	sbci	r16, 0x15	; 21
     938:	4c 49       	sbci	r20, 0x9C	; 156
     93a:	47 4e       	sbci	r20, 0xE7	; 231

0000093c <ALIGN>:
     93c:	5a 08       	sbc	r5, r10
     93e:	8e 03       	fmulsu	r16, r22
     940:	2c 06       	cpc	r2, r28
     942:	5a 08       	sbc	r5, r10
     944:	76 03       	mulsu	r23, r22
     946:	4e 08       	sbc	r4, r14
     948:	8e 03       	fmulsu	r16, r22
     94a:	2c 06       	cpc	r2, r28
     94c:	4e 08       	sbc	r4, r14
     94e:	76 03       	mulsu	r23, r22
     950:	ee 01       	movw	r28, r28

00000952 <is_CCOMMA>:
     952:	34 09       	sbc	r19, r4
     954:	42 43       	sbci	r20, 0x32	; 50
     956:	2c 20       	and	r2, r12

00000958 <CCOMMA>:
     958:	00 09       	sbc	r16, r0
     95a:	52 06       	cpc	r5, r18
     95c:	8c 06       	cpc	r8, r28
     95e:	1c 09       	sbc	r17, r12
     960:	ee 01       	movw	r28, r28

00000962 <is_COMMA>:
     962:	52 09       	sbc	r21, r2
     964:	41 2c       	mov	r4, r1

00000966 <COMMA>:
     966:	00 09       	sbc	r16, r0
     968:	76 03       	mulsu	r23, r22
     96a:	3e 06       	cpc	r3, r30
     96c:	1c 09       	sbc	r17, r12
     96e:	ee 01       	movw	r28, r28

00000970 <is_TOMMA>:
     970:	62 09       	sbc	r22, r2
     972:	42 3c       	cpi	r20, 0xC2	; 194
     974:	2c 20       	and	r2, r12

00000976 <TOMMA>:
     976:	96 04       	cpc	r9, r6
     978:	f0 04       	cpc	r15, r0
     97a:	00 09       	sbc	r16, r0
     97c:	dc 04       	cpc	r13, r12
     97e:	76 03       	mulsu	r23, r22
     980:	ee 01       	movw	r28, r28

00000982 <is_DOVAR>:
     982:	70 09       	sbc	r23, r0
     984:	05 44       	sbci	r16, 0x45	; 69
     986:	4f 56       	subi	r20, 0x6F	; 111
     988:	41 52       	subi	r20, 0x21	; 33

0000098a <DOVAR>:
     98a:	d6 03       	fmuls	r21, r22
     98c:	6c 04       	cpc	r6, r12
     98e:	bc 07       	cpc	r27, r28
     990:	ba 03       	fmulsu	r19, r18
     992:	ee 01       	movw	r28, r28

00000994 <is_DOCON>:
     994:	82 09       	sbc	r24, r2
     996:	05 44       	sbci	r16, 0x45	; 69
     998:	4f 43       	sbci	r20, 0x3F	; 63
     99a:	4f 4e       	sbci	r20, 0xEF	; 239

0000099c <DOCON>:
     99c:	8a 09       	sbc	r24, r10
     99e:	a0 03       	fmuls	r18, r16
     9a0:	8e 03       	fmulsu	r16, r22
     9a2:	ee 01       	movw	r28, r28

000009a4 <is_LITERAL>:
     9a4:	94 09       	sbc	r25, r4
     9a6:	07 4c       	sbci	r16, 0xC7	; 199
     9a8:	49 54       	subi	r20, 0x49	; 73
     9aa:	45 52       	subi	r20, 0x25	; 37
     9ac:	41 4c       	sbci	r20, 0xC1	; 193

000009ae <LITERAL>:
     9ae:	04 06       	cpc	r0, r20
     9b0:	04 06       	cpc	r0, r20
     9b2:	66 09       	sbc	r22, r6
     9b4:	66 09       	sbc	r22, r6
     9b6:	ee 01       	movw	r28, r28

000009b8 <is_KTICK>:
     9b8:	a4 09       	sbc	r26, r4
     9ba:	03 5b       	subi	r16, 0xB3	; 179
     9bc:	27 5d       	subi	r18, 0xD7	; 215

000009be <KTICK>:
     9be:	04 06       	cpc	r0, r20
     9c0:	04 06       	cpc	r0, r20
     9c2:	66 09       	sbc	r22, r6
     9c4:	ee 01       	movw	r28, r28

000009c6 <is_COMP>:
     9c6:	b8 09       	sbc	r27, r8
     9c8:	44 43       	sbci	r20, 0x34	; 52
     9ca:	4f 4d       	sbci	r20, 0xDF	; 223
     9cc:	50 20       	and	r5, r0

000009ce <COMP>:
     9ce:	d6 03       	fmuls	r21, r22
     9d0:	6c 04       	cpc	r6, r12
     9d2:	8a 07       	cpc	r24, r26
     9d4:	ba 03       	fmulsu	r19, r18
     9d6:	a0 03       	fmuls	r18, r16
     9d8:	66 09       	sbc	r22, r6
     9da:	ee 01       	movw	r28, r28

000009dc <is_EXIT>:
     9dc:	c6 09       	sbc	r28, r6
     9de:	44 45       	sbci	r20, 0x54	; 84
     9e0:	58 49       	sbci	r21, 0x98	; 152
     9e2:	54 20       	and	r5, r4

000009e4 <EXIT>:
     9e4:	ce 09       	sbc	r28, r14
     9e6:	ee 01       	movw	r28, r28
     9e8:	ee 01       	movw	r28, r28

000009ea <is_EXEC>:
     9ea:	dc 09       	sbc	r29, r12
     9ec:	47 45       	sbci	r20, 0x57	; 87
     9ee:	58 45       	sbci	r21, 0x58	; 88
     9f0:	43 55       	subi	r20, 0x53	; 83
     9f2:	54 45       	sbci	r21, 0x54	; 84

000009f4 <EXEC>:
     9f4:	ba 03       	fmulsu	r19, r18
     9f6:	ee 01       	movw	r28, r28

000009f8 <is_TAIL>:
     9f8:	ea 09       	sbc	r30, r10
     9fa:	04 54       	subi	r16, 0x44	; 68
     9fc:	41 49       	sbci	r20, 0x91	; 145
     9fe:	4c 20       	and	r4, r12

00000a00 <TAIL>:
     a00:	f2 03       	fmuls	r23, r18
     a02:	3e 06       	cpc	r3, r30
     a04:	f0 04       	cpc	r15, r0
     a06:	ba 03       	fmulsu	r19, r18
     a08:	ee 01       	movw	r28, r28

00000a0a <is_MARKTO>:
     a0a:	f8 09       	sbc	r31, r8
     a0c:	66 4d       	sbci	r22, 0xD6	; 214
     a0e:	41 52       	subi	r20, 0x21	; 33
     a10:	4b 54       	subi	r20, 0x4B	; 75
     a12:	4f 20       	and	r4, r15

00000a14 <MARKTO>:
     a14:	0e 09       	sbc	r16, r14
     a16:	6c 04       	cpc	r6, r12
     a18:	66 09       	sbc	r22, r6
     a1a:	ee 01       	movw	r28, r28

00000a1c <is_TOMARK>:
     a1c:	0a 0a       	sbc	r0, r26
     a1e:	66 54       	subi	r22, 0x46	; 70
     a20:	4f 4d       	sbci	r20, 0xDF	; 223
     a22:	41 52       	subi	r20, 0x21	; 33
     a24:	4b 20       	and	r4, r11

00000a26 <TOMARK>:
     a26:	0e 09       	sbc	r16, r14
     a28:	7e 04       	cpc	r7, r14
     a2a:	76 09       	sbc	r23, r6
     a2c:	ee 01       	movw	r28, r28

00000a2e <is_BEGIN>:
     a2e:	1c 0a       	sbc	r1, r28
     a30:	65 42       	sbci	r22, 0x25	; 37
     a32:	45 47       	sbci	r20, 0x75	; 117
     a34:	49 4e       	sbci	r20, 0xE9	; 233

00000a36 <BEGIN>:
     a36:	0e 09       	sbc	r16, r14
     a38:	ee 01       	movw	r28, r28

00000a3a <is_AGAIN>:
     a3a:	2e 0a       	sbc	r2, r30
     a3c:	65 41       	sbci	r22, 0x15	; 21
     a3e:	47 41       	sbci	r20, 0x17	; 23
     a40:	49 4e       	sbci	r20, 0xE9	; 233

00000a42 <AGAIN>:
     a42:	ce 09       	sbc	r28, r14
     a44:	c0 05       	cpc	r28, r0
     a46:	66 09       	sbc	r22, r6
     a48:	ee 01       	movw	r28, r28

00000a4a <is_UNTIL>:
     a4a:	3a 0a       	sbc	r3, r26
     a4c:	65 55       	subi	r22, 0x55	; 85
     a4e:	4e 54       	subi	r20, 0x4E	; 78
     a50:	49 4c       	sbci	r20, 0xC9	; 201

00000a52 <UNTIL>:
     a52:	ce 09       	sbc	r28, r14
     a54:	e4 05       	cpc	r30, r4
     a56:	66 09       	sbc	r22, r6
     a58:	ee 01       	movw	r28, r28

00000a5a <is_UNLESS>:
     a5a:	4a 0a       	sbc	r4, r26
     a5c:	66 55       	subi	r22, 0x56	; 86
     a5e:	4e 4c       	sbci	r20, 0xCE	; 206
     a60:	45 53       	subi	r20, 0x35	; 53
     a62:	53 20       	and	r5, r3

00000a64 <UNLESS>:
     a64:	16 03       	mulsu	r17, r22
     a66:	52 0a       	sbc	r5, r18
     a68:	ee 01       	movw	r28, r28

00000a6a <is_IF>:
     a6a:	5a 0a       	sbc	r5, r26
     a6c:	62 49       	sbci	r22, 0x92	; 146
     a6e:	46 20       	and	r4, r6

00000a70 <IF>:
     a70:	ce 09       	sbc	r28, r14
     a72:	e4 05       	cpc	r30, r4
     a74:	14 0a       	sbc	r1, r20
     a76:	ee 01       	movw	r28, r28

00000a78 <is_GO>:
     a78:	6a 0a       	sbc	r6, r26
     a7a:	62 47       	sbci	r22, 0x72	; 114
     a7c:	4f 20       	and	r4, r15

00000a7e <GO>:
     a7e:	ce 09       	sbc	r28, r14
     a80:	c0 05       	cpc	r28, r0
     a82:	14 0a       	sbc	r1, r20
     a84:	ee 01       	movw	r28, r28

00000a86 <is_THEN>:
     a86:	78 0a       	sbc	r7, r24
     a88:	64 54       	subi	r22, 0x44	; 68
     a8a:	48 45       	sbci	r20, 0x58	; 88
     a8c:	4e 20       	and	r4, r14

00000a8e <THEN>:
     a8e:	9a 0a       	sbc	r9, r26
     a90:	ee 01       	movw	r28, r28

00000a92 <is_ENDIF>:
     a92:	86 0a       	sbc	r8, r22
     a94:	65 45       	sbci	r22, 0x55	; 85
     a96:	4e 44       	sbci	r20, 0x4E	; 78
     a98:	49 46       	sbci	r20, 0x69	; 105

00000a9a <ENDIF>:
     a9a:	26 0a       	sbc	r2, r22
     a9c:	ee 01       	movw	r28, r28

00000a9e <is_ELSE>:
     a9e:	92 0a       	sbc	r9, r18
     aa0:	64 45       	sbci	r22, 0x54	; 84
     aa2:	4c 53       	subi	r20, 0x3C	; 60
     aa4:	45 20       	and	r4, r5

00000aa6 <ELSE>:
     aa6:	7e 0a       	sbc	r7, r30
     aa8:	7e 04       	cpc	r7, r14
     aaa:	26 0a       	sbc	r2, r22
     aac:	ee 01       	movw	r28, r28

00000aae <is_WHILE>:
     aae:	9e 0a       	sbc	r9, r30
     ab0:	65 57       	subi	r22, 0x75	; 117
     ab2:	48 49       	sbci	r20, 0x98	; 152
     ab4:	4c 45       	sbci	r20, 0x5C	; 92

00000ab6 <WHILE>:
     ab6:	70 0a       	sbc	r7, r16
     ab8:	7e 04       	cpc	r7, r14
     aba:	ee 01       	movw	r28, r28

00000abc <is_REPEAT>:
     abc:	ae 0a       	sbc	r10, r30
     abe:	66 52       	subi	r22, 0x26	; 38
     ac0:	45 50       	subi	r20, 0x05	; 5
     ac2:	45 41       	sbci	r20, 0x15	; 21
     ac4:	54 20       	and	r5, r4

00000ac6 <REPEAT>:
     ac6:	42 0a       	sbc	r4, r18
     ac8:	26 0a       	sbc	r2, r22
     aca:	ee 01       	movw	r28, r28

00000acc <is_AHEAD>:
     acc:	bc 0a       	sbc	r11, r28
     ace:	65 41       	sbci	r22, 0x15	; 21
     ad0:	48 45       	sbci	r20, 0x58	; 88
     ad2:	41 44       	sbci	r20, 0x41	; 65

00000ad4 <AHEAD>:
     ad4:	7e 0a       	sbc	r7, r30
     ad6:	ee 01       	movw	r28, r28

00000ad8 <is_AFT>:
     ad8:	cc 0a       	sbc	r12, r28
     ada:	63 41       	sbci	r22, 0x13	; 19
     adc:	46 54       	subi	r20, 0x46	; 70

00000ade <AFT>:
     ade:	5c 04       	cpc	r5, r12
     ae0:	7e 0a       	sbc	r7, r30
     ae2:	0e 09       	sbc	r16, r14
     ae4:	7e 04       	cpc	r7, r14
     ae6:	ee 01       	movw	r28, r28

00000ae8 <is_HOOK>:
     ae8:	d8 0a       	sbc	r13, r24
     aea:	64 48       	sbci	r22, 0x84	; 132
     aec:	4f 4f       	sbci	r20, 0xFF	; 255
     aee:	4b 20       	and	r4, r11

00000af0 <HOOK>:
     af0:	36 0a       	sbc	r3, r22
     af2:	ba 03       	fmulsu	r19, r18
     af4:	ee 01       	movw	r28, r28

00000af6 <is_BACK>:
     af6:	e8 0a       	sbc	r14, r24
     af8:	64 42       	sbci	r22, 0x24	; 36
     afa:	41 43       	sbci	r20, 0x31	; 49
     afc:	4b 20       	and	r4, r11

00000afe <BACK>:
     afe:	d6 03       	fmuls	r21, r22
     b00:	42 0a       	sbc	r4, r18
     b02:	ee 01       	movw	r28, r28

00000b04 <is_FOR>:
     b04:	f6 0a       	sbc	r15, r22
     b06:	43 46       	sbci	r20, 0x63	; 99
     b08:	4f 52       	subi	r20, 0x2F	; 47

00000b0a <FOR>:
     b0a:	ce 09       	sbc	r28, r14
     b0c:	ba 03       	fmulsu	r19, r18
     b0e:	36 0a       	sbc	r3, r22
     b10:	ee 01       	movw	r28, r28

00000b12 <is_TXEN>:
     b12:	04 0b       	sbc	r16, r20
     b14:	04 54       	subi	r16, 0x44	; 68
     b16:	58 45       	sbci	r21, 0x58	; 88
     b18:	4e 20       	and	r4, r14

00000b1a <TXEN>:
     b1a:	d6 03       	fmuls	r21, r22
     b1c:	b0 07       	cpc	r27, r16
     b1e:	6c 04       	cpc	r6, r12
     b20:	e4 05       	cpc	r30, r4
     b22:	26 0b       	sbc	r18, r22
     b24:	ba 03       	fmulsu	r19, r18
     b26:	ee 01       	movw	r28, r28

00000b28 <is_NEXT>:
     b28:	12 0b       	sbc	r17, r18
     b2a:	44 4e       	sbci	r20, 0xE4	; 228
     b2c:	45 58       	subi	r20, 0x85	; 133
     b2e:	54 20       	and	r5, r4

00000b30 <NEXT>:
     b30:	ce 09       	sbc	r28, r14
     b32:	1a 0b       	sbc	r17, r26
     b34:	64 0a       	sbc	r6, r20
     b36:	ee 01       	movw	r28, r28

00000b38 <is_CASE>:
     b38:	28 0b       	sbc	r18, r24
     b3a:	44 43       	sbci	r20, 0x34	; 52
     b3c:	41 53       	subi	r20, 0x31	; 49
     b3e:	45 20       	and	r4, r5

00000b40 <CASE>:
     b40:	7a 06       	cpc	r7, r26
     b42:	ee 01       	movw	r28, r28

00000b44 <is_OF>:
     b44:	38 0b       	sbc	r19, r24
     b46:	42 4f       	sbci	r20, 0xF2	; 242
     b48:	46 20       	and	r4, r6

00000b4a <OF>:
     b4a:	a4 07       	cpc	r26, r20
     b4c:	ce 09       	sbc	r28, r14
     b4e:	96 04       	cpc	r9, r6
     b50:	ce 09       	sbc	r28, r14
     b52:	40 07       	cpc	r20, r16
     b54:	ce 09       	sbc	r28, r14
     b56:	70 0a       	sbc	r7, r16
     b58:	ce 09       	sbc	r28, r14
     b5a:	5c 04       	cpc	r5, r12
     b5c:	ee 01       	movw	r28, r28

00000b5e <is_ENDOF>:
     b5e:	44 0b       	sbc	r20, r20
     b60:	45 45       	sbci	r20, 0x55	; 85
     b62:	4e 44       	sbci	r20, 0x4E	; 78
     b64:	4f 46       	sbci	r20, 0x6F	; 111

00000b66 <ENDOF>:
     b66:	ce 09       	sbc	r28, r14
     b68:	a6 0a       	sbc	r10, r22
     b6a:	ee 01       	movw	r28, r28

00000b6c <is_DEFAULT>:
     b6c:	5e 0b       	sbc	r21, r30
     b6e:	47 44       	sbci	r20, 0x47	; 71
     b70:	45 46       	sbci	r20, 0x65	; 101
     b72:	41 55       	subi	r20, 0x51	; 81
     b74:	4c 54       	subi	r20, 0x4C	; 76

00000b76 <DEFAULT>:
     b76:	ce 09       	sbc	r28, r14
     b78:	ec 02       	muls	r30, r28
     b7a:	ce 09       	sbc	r28, r14
     b7c:	70 0a       	sbc	r7, r16
     b7e:	ce 09       	sbc	r28, r14
     b80:	5c 04       	cpc	r5, r12
     b82:	ee 01       	movw	r28, r28

00000b84 <is_ENDCASE>:
     b84:	6c 0b       	sbc	r22, r28
     b86:	47 45       	sbci	r20, 0x57	; 87
     b88:	4e 44       	sbci	r20, 0x4E	; 78
     b8a:	43 41       	sbci	r20, 0x13	; 19
     b8c:	53 45       	sbci	r21, 0x53	; 83

00000b8e <ENDCASE>:
     b8e:	ce 09       	sbc	r28, r14
     b90:	5c 04       	cpc	r5, r12
     b92:	0a 0b       	sbc	r16, r26
     b94:	ce 09       	sbc	r28, r14
     b96:	8e 0a       	sbc	r8, r30
     b98:	30 0b       	sbc	r19, r16
     b9a:	ee 01       	movw	r28, r28

00000b9c <is_DOIT>:
     b9c:	84 0b       	sbc	r24, r20
     b9e:	04 44       	sbci	r16, 0x44	; 68
     ba0:	4f 49       	sbci	r20, 0x9F	; 159
     ba2:	54 20       	and	r5, r4

00000ba4 <DOIT>:
     ba4:	ba 03       	fmulsu	r19, r18
     ba6:	ba 03       	fmulsu	r19, r18
     ba8:	ee 01       	movw	r28, r28

00000baa <is_LOOPN>:
     baa:	9c 0b       	sbc	r25, r28
     bac:	06 2b       	or	r16, r22
     bae:	4c 4f       	sbci	r20, 0xFC	; 252
     bb0:	4f 50       	subi	r20, 0x0F	; 15
     bb2:	49 20       	and	r4, r9

00000bb4 <LOOPN>:
     bb4:	6c 04       	cpc	r6, r12
     bb6:	d6 03       	fmuls	r21, r22
     bb8:	dc 04       	cpc	r13, r12
     bba:	d6 03       	fmuls	r21, r22
     bbc:	0a 07       	cpc	r16, r26
     bbe:	ba 03       	fmulsu	r19, r18
     bc0:	96 04       	cpc	r9, r6
     bc2:	96 04       	cpc	r9, r6
     bc4:	f0 04       	cpc	r15, r0
     bc6:	d6 03       	fmuls	r21, r22
     bc8:	6e 07       	cpc	r22, r30
     bca:	e4 05       	cpc	r30, r4
     bcc:	d8 0b       	sbc	r29, r24
     bce:	c4 04       	cpc	r12, r4
     bd0:	e4 05       	cpc	r30, r4
     bd2:	e6 0b       	sbc	r30, r22
     bd4:	c0 05       	cpc	r28, r0
     bd6:	de 0b       	sbc	r29, r30
     bd8:	56 07       	cpc	r21, r22
     bda:	e4 05       	cpc	r30, r4
     bdc:	e6 0b       	sbc	r30, r22
     bde:	ba 03       	fmulsu	r19, r18
     be0:	ba 03       	fmulsu	r19, r18
     be2:	02 03       	mulsu	r16, r18
     be4:	ee 01       	movw	r28, r28
     be6:	ec 02       	muls	r30, r28
     be8:	ee 01       	movw	r28, r28

00000bea <is_LOOPI>:
     bea:	aa 0b       	sbc	r26, r26
     bec:	05 4c       	sbci	r16, 0xC5	; 197
     bee:	4f 4f       	sbci	r20, 0xFF	; 255
     bf0:	50 49       	sbci	r21, 0x90	; 144

00000bf2 <LOOPI>:
     bf2:	8c 06       	cpc	r8, r28
     bf4:	b4 0b       	sbc	r27, r20
     bf6:	ee 01       	movw	r28, r28

00000bf8 <is_DO>:
     bf8:	ea 0b       	sbc	r30, r26
     bfa:	42 44       	sbci	r20, 0x42	; 66
     bfc:	4f 20       	and	r4, r15

00000bfe <DO>:
     bfe:	ce 09       	sbc	r28, r14
     c00:	a4 0b       	sbc	r26, r20
     c02:	36 0a       	sbc	r3, r22
     c04:	ee 01       	movw	r28, r28

00000c06 <is_I>:
     c06:	f8 0b       	sbc	r31, r24
     c08:	01 49       	sbci	r16, 0x91	; 145

00000c0a <I>:
     c0a:	d6 03       	fmuls	r21, r22
     c0c:	6c 04       	cpc	r6, r12
     c0e:	ba 03       	fmulsu	r19, r18
     c10:	ee 01       	movw	r28, r28

00000c12 <is_J>:
     c12:	06 0c       	add	r0, r6
     c14:	01 4a       	sbci	r16, 0xA1	; 161

00000c16 <J>:
     c16:	d6 03       	fmuls	r21, r22
     c18:	d6 03       	fmuls	r21, r22
     c1a:	d6 03       	fmuls	r21, r22
     c1c:	6c 04       	cpc	r6, r12
     c1e:	ba 03       	fmulsu	r19, r18
     c20:	ba 03       	fmulsu	r19, r18
     c22:	ba 03       	fmulsu	r19, r18
     c24:	ee 01       	movw	r28, r28

00000c26 <is_LEAVE>:
     c26:	12 0c       	add	r1, r2
     c28:	45 4c       	sbci	r20, 0xC5	; 197
     c2a:	45 41       	sbci	r20, 0x15	; 21
     c2c:	56 45       	sbci	r21, 0x56	; 86

00000c2e <LEAVE>:
     c2e:	68 0c       	add	r6, r8
     c30:	ce 09       	sbc	r28, r14
     c32:	c0 05       	cpc	r28, r0
     c34:	0e 09       	sbc	r16, r14
     c36:	6c 04       	cpc	r6, r12
     c38:	66 09       	sbc	r22, r6
     c3a:	e4 09       	sbc	r30, r4
     c3c:	ee 01       	movw	r28, r28

00000c3e <is_LOOP>:
     c3e:	26 0c       	add	r2, r6
     c40:	44 4c       	sbci	r20, 0xC4	; 196
     c42:	4f 4f       	sbci	r20, 0xFF	; 255
     c44:	50 20       	and	r5, r0

00000c46 <LOOP>:
     c46:	ce 09       	sbc	r28, r14
     c48:	f2 0b       	sbc	r31, r18
     c4a:	52 0a       	sbc	r5, r18
     c4c:	ee 01       	movw	r28, r28

00000c4e <is_PLOOP>:
     c4e:	3e 0c       	add	r3, r14
     c50:	45 2b       	or	r20, r21
     c52:	4c 4f       	sbci	r20, 0xFC	; 252
     c54:	4f 50       	subi	r20, 0x0F	; 15

00000c56 <PLOOP>:
     c56:	ce 09       	sbc	r28, r14
     c58:	b4 0b       	sbc	r27, r20
     c5a:	52 0a       	sbc	r5, r18
     c5c:	ee 01       	movw	r28, r28

00000c5e <is_UNLOOP>:
     c5e:	4e 0c       	add	r4, r14
     c60:	46 55       	subi	r20, 0x56	; 86
     c62:	4e 4c       	sbci	r20, 0xCE	; 206
     c64:	4f 4f       	sbci	r20, 0xFF	; 255
     c66:	50 20       	and	r5, r0

00000c68 <UNLOOP>:
     c68:	d6 03       	fmuls	r21, r22
     c6a:	d6 03       	fmuls	r21, r22
     c6c:	5c 04       	cpc	r5, r12
     c6e:	5c 04       	cpc	r5, r12
     c70:	ee 01       	movw	r28, r28

00000c72 <is_CR>:
     c72:	5e 0c       	add	r5, r14
     c74:	02 43       	sbci	r16, 0x32	; 50
     c76:	52 20       	and	r5, r2

00000c78 <CR>:
     c78:	04 06       	cpc	r0, r20
     c7a:	0d 00       	.word	0x000d	; ????
     c7c:	42 02       	muls	r20, r18
     c7e:	ee 01       	movw	r28, r28

00000c80 <is_LF>:
     c80:	72 0c       	add	r7, r2
     c82:	02 4c       	sbci	r16, 0xC2	; 194
     c84:	46 20       	and	r4, r6

00000c86 <LF>:
     c86:	04 06       	cpc	r0, r20
     c88:	0a 00       	.word	0x000a	; ????
     c8a:	42 02       	muls	r20, r18
     c8c:	ee 01       	movw	r28, r28

00000c8e <is_BL>:
     c8e:	80 0c       	add	r8, r0
     c90:	02 42       	sbci	r16, 0x22	; 34
     c92:	4c 20       	and	r4, r12

00000c94 <BL>:
     c94:	04 06       	cpc	r0, r20
     c96:	20 00       	.word	0x0020	; ????
     c98:	42 02       	muls	r20, r18
     c9a:	ee 01       	movw	r28, r28

00000c9c <is_PACE>:
     c9c:	8e 0c       	add	r8, r14
     c9e:	04 50       	subi	r16, 0x04	; 4
     ca0:	41 43       	sbci	r20, 0x31	; 49
     ca2:	45 20       	and	r4, r5

00000ca4 <PACE>:
     ca4:	04 06       	cpc	r0, r20
     ca6:	0b 00       	.word	0x000b	; ????
     ca8:	42 02       	muls	r20, r18
     caa:	ee 01       	movw	r28, r28

00000cac <is_BELL>:
     cac:	9c 0c       	add	r9, r12
     cae:	04 42       	sbci	r16, 0x24	; 36
     cb0:	45 4c       	sbci	r20, 0xC5	; 197
     cb2:	4c 20       	and	r4, r12

00000cb4 <BELL>:
     cb4:	04 06       	cpc	r0, r20
     cb6:	07 00       	.word	0x0007	; ????
     cb8:	42 02       	muls	r20, r18
     cba:	ee 01       	movw	r28, r28

00000cbc <is_SPACE>:
     cbc:	ac 0c       	add	r10, r12
     cbe:	05 53       	subi	r16, 0x35	; 53
     cc0:	50 41       	sbci	r21, 0x10	; 16
     cc2:	43 45       	sbci	r20, 0x53	; 83

00000cc4 <SPACE>:
     cc4:	04 06       	cpc	r0, r20
     cc6:	20 00       	.word	0x0020	; ????
     cc8:	42 02       	muls	r20, r18
     cca:	ee 01       	movw	r28, r28

00000ccc <is_SPACES>:
     ccc:	bc 0c       	add	r11, r12
     cce:	06 53       	subi	r16, 0x36	; 54
     cd0:	50 41       	sbci	r21, 0x10	; 16
     cd2:	43 45       	sbci	r20, 0x53	; 83
     cd4:	53 20       	and	r5, r3

00000cd6 <SPACES>:
     cd6:	b2 04       	cpc	r11, r2
     cd8:	e4 05       	cpc	r30, r4
     cda:	e4 0c       	add	r14, r4
     cdc:	c4 0c       	add	r12, r4
     cde:	b0 07       	cpc	r27, r16
     ce0:	c0 05       	cpc	r28, r0
     ce2:	d6 0c       	add	r13, r6
     ce4:	ee 01       	movw	r28, r28

00000ce6 <is_COUNT>:
     ce6:	cc 0c       	add	r12, r12
     ce8:	05 43       	sbci	r16, 0x35	; 53
     cea:	4f 55       	subi	r20, 0x5F	; 95
     cec:	4e 54       	subi	r20, 0x4E	; 78

00000cee <COUNT>:
     cee:	6c 04       	cpc	r6, r12
     cf0:	8e 03       	fmulsu	r16, r22
     cf2:	ba 03       	fmulsu	r19, r18
     cf4:	a4 07       	cpc	r26, r20
     cf6:	d6 03       	fmuls	r21, r22
     cf8:	ee 01       	movw	r28, r28

00000cfa <is_TYPE>:
     cfa:	e6 0c       	add	r14, r6
     cfc:	04 54       	subi	r16, 0x44	; 68
     cfe:	59 50       	subi	r21, 0x09	; 9
     d00:	45 20       	and	r4, r5

00000d02 <TYPE>:
     d02:	6c 04       	cpc	r6, r12
     d04:	e4 05       	cpc	r30, r4
     d06:	1a 0d       	add	r17, r10
     d08:	b0 07       	cpc	r27, r16
     d0a:	ba 03       	fmulsu	r19, r18
     d0c:	6c 04       	cpc	r6, r12
     d0e:	8e 03       	fmulsu	r16, r22
     d10:	42 02       	muls	r20, r18
     d12:	a4 07       	cpc	r26, r20
     d14:	d6 03       	fmuls	r21, r22
     d16:	c0 05       	cpc	r28, r0
     d18:	02 0d       	add	r16, r2
     d1a:	5c 04       	cpc	r5, r12
     d1c:	5c 04       	cpc	r5, r12
     d1e:	ee 01       	movw	r28, r28

00000d20 <is_UMMINUS>:
     d20:	fa 0c       	add	r15, r10
     d22:	03 55       	subi	r16, 0x53	; 83
     d24:	4d 2d       	mov	r20, r13

00000d26 <UMMINUS>:
     d26:	76 05       	cpc	r23, r6
     d28:	56 03       	mulsu	r21, r22
     d2a:	ee 01       	movw	r28, r28

00000d2c <is_ULESS>:
     d2c:	20 0d       	add	r18, r0
     d2e:	02 55       	subi	r16, 0x52	; 82
     d30:	2d 20       	and	r2, r13

00000d32 <ULESS>:
     d32:	66 08       	sbc	r6, r6
     d34:	8e 03       	fmulsu	r16, r22
     d36:	3e 06       	cpc	r3, r30
     d38:	f0 04       	cpc	r15, r0
     d3a:	6c 04       	cpc	r6, r12
     d3c:	66 08       	sbc	r6, r6
     d3e:	76 03       	mulsu	r23, r22
     d40:	ee 01       	movw	r28, r28

00000d42 <is_UMORE>:
     d42:	2c 0d       	add	r18, r12
     d44:	02 55       	subi	r16, 0x52	; 82
     d46:	2b 20       	and	r2, r11

00000d48 <UMORE>:
     d48:	66 08       	sbc	r6, r6
     d4a:	8e 03       	fmulsu	r16, r22
     d4c:	3e 06       	cpc	r3, r30
     d4e:	dc 04       	cpc	r13, r12
     d50:	6c 04       	cpc	r6, r12
     d52:	66 08       	sbc	r6, r6
     d54:	76 03       	mulsu	r23, r22
     d56:	ee 01       	movw	r28, r28

00000d58 <is_UAT>:
     d58:	42 0d       	add	r20, r2
     d5a:	02 55       	subi	r16, 0x52	; 82
     d5c:	40 20       	and	r4, r0

00000d5e <UAT>:
     d5e:	66 08       	sbc	r6, r6
     d60:	8e 03       	fmulsu	r16, r22
     d62:	ee 01       	movw	r28, r28

00000d64 <is_UTO>:
     d64:	58 0d       	add	r21, r8
     d66:	02 55       	subi	r16, 0x52	; 82
     d68:	21 20       	and	r2, r1

00000d6a <UTO>:
     d6a:	66 08       	sbc	r6, r6
     d6c:	76 03       	mulsu	r23, r22
     d6e:	ee 01       	movw	r28, r28

00000d70 <is_USV>:
     d70:	64 0d       	add	r22, r4
     d72:	02 3e       	cpi	r16, 0xE2	; 226
     d74:	55 20       	and	r5, r5

00000d76 <USV>:
     d76:	66 08       	sbc	r6, r6
     d78:	8e 03       	fmulsu	r16, r22
     d7a:	76 03       	mulsu	r23, r22
     d7c:	ee 01       	movw	r28, r28

00000d7e <is_ULD>:
     d7e:	70 0d       	add	r23, r0
     d80:	02 55       	subi	r16, 0x52	; 82
     d82:	3e 20       	and	r3, r14

00000d84 <ULD>:
     d84:	66 08       	sbc	r6, r6
     d86:	8e 03       	fmulsu	r16, r22
     d88:	8e 03       	fmulsu	r16, r22
     d8a:	ee 01       	movw	r28, r28

00000d8c <is_COLDZERO>:
     d8c:	7e 0d       	add	r23, r14
     d8e:	05 43       	sbci	r16, 0x35	; 53
     d90:	4f 4c       	sbci	r20, 0xCF	; 207
     d92:	44 30       	cpi	r20, 0x04	; 4

00000d94 <COLDZERO>:
     d94:	04 06       	cpc	r0, r20
     d96:	00 00       	nop
     d98:	04 06       	cpc	r0, r20
     d9a:	b4 01       	movw	r22, r8
     d9c:	76 03       	mulsu	r23, r22
     d9e:	04 06       	cpc	r0, r20
     da0:	00 00       	nop
     da2:	04 06       	cpc	r0, r20
     da4:	b6 01       	movw	r22, r12
     da6:	76 03       	mulsu	r23, r22
     da8:	04 06       	cpc	r0, r20
     daa:	00 00       	nop
     dac:	04 06       	cpc	r0, r20
     dae:	b8 01       	movw	r22, r16
     db0:	76 03       	mulsu	r23, r22
     db2:	04 06       	cpc	r0, r20
     db4:	00 00       	nop
     db6:	04 06       	cpc	r0, r20
     db8:	ba 01       	movw	r22, r20
     dba:	76 03       	mulsu	r23, r22
     dbc:	04 06       	cpc	r0, r20
     dbe:	0e 22       	and	r0, r30
     dc0:	04 06       	cpc	r0, r20
     dc2:	bc 01       	movw	r22, r24
     dc4:	76 03       	mulsu	r23, r22
     dc6:	04 06       	cpc	r0, r20
     dc8:	1c 22       	and	r1, r28
     dca:	04 06       	cpc	r0, r20
     dcc:	be 01       	movw	r22, r28
     dce:	76 03       	mulsu	r23, r22
     dd0:	04 06       	cpc	r0, r20
     dd2:	10 00       	.word	0x0010	; ????
     dd4:	04 06       	cpc	r0, r20
     dd6:	c2 01       	movw	r24, r4
     dd8:	76 03       	mulsu	r23, r22
     dda:	04 06       	cpc	r0, r20
     ddc:	ec 01       	movw	r28, r24
     dde:	04 06       	cpc	r0, r20
     de0:	c4 01       	movw	r24, r8
     de2:	76 03       	mulsu	r23, r22
     de4:	04 06       	cpc	r0, r20
     de6:	ff 08       	sbc	r15, r15
     de8:	04 06       	cpc	r0, r20
     dea:	c0 01       	movw	r24, r0
     dec:	76 03       	mulsu	r23, r22
     dee:	ee 01       	movw	r28, r28

00000df0 <is_EELOAD>:
     df0:	8c 0d       	add	r24, r12
     df2:	06 45       	sbci	r16, 0x56	; 86
     df4:	45 4c       	sbci	r20, 0xC5	; 197
     df6:	4f 41       	sbci	r20, 0x1F	; 31
     df8:	44 20       	and	r4, r4

00000dfa <EELOAD>:
     dfa:	7a 06       	cpc	r7, r26
     dfc:	6c 04       	cpc	r6, r12
     dfe:	cc 06       	cpc	r12, r28
     e00:	04 06       	cpc	r0, r20
     e02:	b4 01       	movw	r22, r8
     e04:	76 03       	mulsu	r23, r22
     e06:	9e 06       	cpc	r9, r30
     e08:	dc 04       	cpc	r13, r12
     e0a:	6c 04       	cpc	r6, r12
     e0c:	cc 06       	cpc	r12, r28
     e0e:	04 06       	cpc	r0, r20
     e10:	b6 01       	movw	r22, r12
     e12:	76 03       	mulsu	r23, r22
     e14:	9e 06       	cpc	r9, r30
     e16:	dc 04       	cpc	r13, r12
     e18:	6c 04       	cpc	r6, r12
     e1a:	cc 06       	cpc	r12, r28
     e1c:	04 06       	cpc	r0, r20
     e1e:	b8 01       	movw	r22, r16
     e20:	76 03       	mulsu	r23, r22
     e22:	9e 06       	cpc	r9, r30
     e24:	dc 04       	cpc	r13, r12
     e26:	6c 04       	cpc	r6, r12
     e28:	cc 06       	cpc	r12, r28
     e2a:	04 06       	cpc	r0, r20
     e2c:	ba 01       	movw	r22, r20
     e2e:	76 03       	mulsu	r23, r22
     e30:	9e 06       	cpc	r9, r30
     e32:	dc 04       	cpc	r13, r12
     e34:	6c 04       	cpc	r6, r12
     e36:	cc 06       	cpc	r12, r28
     e38:	04 06       	cpc	r0, r20
     e3a:	bc 01       	movw	r22, r24
     e3c:	76 03       	mulsu	r23, r22
     e3e:	9e 06       	cpc	r9, r30
     e40:	dc 04       	cpc	r13, r12
     e42:	6c 04       	cpc	r6, r12
     e44:	cc 06       	cpc	r12, r28
     e46:	04 06       	cpc	r0, r20
     e48:	be 01       	movw	r22, r28
     e4a:	76 03       	mulsu	r23, r22
     e4c:	9e 06       	cpc	r9, r30
     e4e:	dc 04       	cpc	r13, r12
     e50:	6c 04       	cpc	r6, r12
     e52:	cc 06       	cpc	r12, r28
     e54:	04 06       	cpc	r0, r20
     e56:	c2 01       	movw	r24, r4
     e58:	76 03       	mulsu	r23, r22
     e5a:	9e 06       	cpc	r9, r30
     e5c:	dc 04       	cpc	r13, r12
     e5e:	6c 04       	cpc	r6, r12
     e60:	cc 06       	cpc	r12, r28
     e62:	04 06       	cpc	r0, r20
     e64:	c0 01       	movw	r24, r0
     e66:	76 03       	mulsu	r23, r22
     e68:	ee 01       	movw	r28, r28

00000e6a <is_EESAVE>:
     e6a:	f0 0d       	add	r31, r0
     e6c:	06 45       	sbci	r16, 0x56	; 86
     e6e:	45 53       	subi	r20, 0x35	; 53
     e70:	41 56       	subi	r20, 0x61	; 97
     e72:	45 20       	and	r4, r5

00000e74 <EESAVE>:
     e74:	7a 06       	cpc	r7, r26
     e76:	6c 04       	cpc	r6, r12
     e78:	04 06       	cpc	r0, r20
     e7a:	b4 01       	movw	r22, r8
     e7c:	8e 03       	fmulsu	r16, r22
     e7e:	7e 04       	cpc	r7, r14
     e80:	b2 06       	cpc	r11, r18
     e82:	9e 06       	cpc	r9, r30
     e84:	dc 04       	cpc	r13, r12
     e86:	6c 04       	cpc	r6, r12
     e88:	04 06       	cpc	r0, r20
     e8a:	b6 01       	movw	r22, r12
     e8c:	8e 03       	fmulsu	r16, r22
     e8e:	7e 04       	cpc	r7, r14
     e90:	b2 06       	cpc	r11, r18
     e92:	9e 06       	cpc	r9, r30
     e94:	dc 04       	cpc	r13, r12
     e96:	6c 04       	cpc	r6, r12
     e98:	04 06       	cpc	r0, r20
     e9a:	b8 01       	movw	r22, r16
     e9c:	8e 03       	fmulsu	r16, r22
     e9e:	7e 04       	cpc	r7, r14
     ea0:	b2 06       	cpc	r11, r18
     ea2:	9e 06       	cpc	r9, r30
     ea4:	dc 04       	cpc	r13, r12
     ea6:	6c 04       	cpc	r6, r12
     ea8:	04 06       	cpc	r0, r20
     eaa:	ba 01       	movw	r22, r20
     eac:	8e 03       	fmulsu	r16, r22
     eae:	7e 04       	cpc	r7, r14
     eb0:	b2 06       	cpc	r11, r18
     eb2:	9e 06       	cpc	r9, r30
     eb4:	dc 04       	cpc	r13, r12
     eb6:	6c 04       	cpc	r6, r12
     eb8:	04 06       	cpc	r0, r20
     eba:	bc 01       	movw	r22, r24
     ebc:	8e 03       	fmulsu	r16, r22
     ebe:	7e 04       	cpc	r7, r14
     ec0:	b2 06       	cpc	r11, r18
     ec2:	9e 06       	cpc	r9, r30
     ec4:	dc 04       	cpc	r13, r12
     ec6:	6c 04       	cpc	r6, r12
     ec8:	04 06       	cpc	r0, r20
     eca:	be 01       	movw	r22, r28
     ecc:	8e 03       	fmulsu	r16, r22
     ece:	7e 04       	cpc	r7, r14
     ed0:	b2 06       	cpc	r11, r18
     ed2:	9e 06       	cpc	r9, r30
     ed4:	dc 04       	cpc	r13, r12
     ed6:	6c 04       	cpc	r6, r12
     ed8:	04 06       	cpc	r0, r20
     eda:	c2 01       	movw	r24, r4
     edc:	8e 03       	fmulsu	r16, r22
     ede:	7e 04       	cpc	r7, r14
     ee0:	b2 06       	cpc	r11, r18
     ee2:	9e 06       	cpc	r9, r30
     ee4:	dc 04       	cpc	r13, r12
     ee6:	6c 04       	cpc	r6, r12
     ee8:	04 06       	cpc	r0, r20
     eea:	c0 01       	movw	r24, r0
     eec:	8e 03       	fmulsu	r16, r22
     eee:	7e 04       	cpc	r7, r14
     ef0:	b2 06       	cpc	r11, r18
     ef2:	ee 01       	movw	r28, r28

00000ef4 <is_COLD>:
     ef4:	6a 0e       	add	r6, r26
     ef6:	04 43       	sbci	r16, 0x34	; 52
     ef8:	4f 4c       	sbci	r20, 0xCF	; 207
     efa:	44 20       	and	r4, r4

00000efc <COLD>:
     efc:	fa 0d       	add	r31, r10
     efe:	04 06       	cpc	r0, r20
     f00:	b6 01       	movw	r22, r12
     f02:	16 03       	mulsu	r17, r22
     f04:	e4 05       	cpc	r30, r4
     f06:	0c 0f       	add	r16, r28
     f08:	94 0d       	add	r25, r4
     f0a:	74 0e       	add	r7, r20

00000f0c <_safe>:
     f0c:	04 06       	cpc	r0, r20
     f0e:	b4 01       	movw	r22, r8
     f10:	12 04       	cpc	r1, r2
     f12:	04 06       	cpc	r0, r20
     f14:	90 01       	movw	r18, r0
     f16:	24 04       	cpc	r2, r4
     f18:	04 06       	cpc	r0, r20
     f1a:	00 00       	nop
     f1c:	1c 08       	sbc	r1, r12
     f1e:	76 03       	mulsu	r23, r22
     f20:	04 06       	cpc	r0, r20
     f22:	10 00       	.word	0x0010	; ????
     f24:	2a 08       	sbc	r2, r10
     f26:	76 03       	mulsu	r23, r22
     f28:	04 06       	cpc	r0, r20
     f2a:	48 0f       	add	r20, r24
     f2c:	d6 03       	fmuls	r21, r22
     f2e:	04 06       	cpc	r0, r20
     f30:	b6 01       	movw	r22, r12
     f32:	6c 04       	cpc	r6, r12
     f34:	8e 03       	fmulsu	r16, r22
     f36:	8c 06       	cpc	r8, r28
     f38:	dc 04       	cpc	r13, r12
     f3a:	7e 04       	cpc	r7, r14
     f3c:	76 03       	mulsu	r23, r22
     f3e:	ee 01       	movw	r28, r28

00000f40 <is_WARM>:
     f40:	f4 0e       	add	r15, r20
     f42:	04 57       	subi	r16, 0x74	; 116
     f44:	41 52       	subi	r20, 0x21	; 33
     f46:	4d 20       	and	r4, r13

00000f48 <WARM>:
     f48:	b8 01       	movw	r22, r16
     f4a:	8e 03       	fmulsu	r16, r22
     f4c:	f4 09       	sbc	r31, r4
     f4e:	92 21       	and	r25, r2
     f50:	ee 01       	movw	r28, r28

00000f52 <is_BYE>:
     f52:	40 0f       	add	r20, r16
     f54:	03 42       	sbci	r16, 0x23	; 35
     f56:	59 45       	sbci	r21, 0x59	; 89

00000f58 <BYE>:
     f58:	74 0e       	add	r7, r20
     f5a:	ba 01       	movw	r22, r20
     f5c:	8e 03       	fmulsu	r16, r22
     f5e:	f4 09       	sbc	r31, r4
     f60:	26 00       	.word	0x0026	; ????
     f62:	ee 01       	movw	r28, r28

00000f64 <is_FOUR>:
     f64:	52 0f       	add	r21, r18
     f66:	01 34       	cpi	r16, 0x41	; 65

00000f68 <FOUR>:
     f68:	04 06       	cpc	r0, r20
     f6a:	04 00       	.word	0x0004	; ????
     f6c:	ee 01       	movw	r28, r28

00000f6e <is_FOURPLUS>:
     f6e:	64 0f       	add	r22, r20
     f70:	02 34       	cpi	r16, 0x42	; 66
     f72:	2b 20       	and	r2, r11

00000f74 <FOURPLUS>:
     f74:	04 06       	cpc	r0, r20
     f76:	04 00       	.word	0x0004	; ????
     f78:	dc 04       	cpc	r13, r12
     f7a:	ee 01       	movw	r28, r28

00000f7c <is_FOURMINUS>:
     f7c:	6e 0f       	add	r22, r30
     f7e:	02 34       	cpi	r16, 0x42	; 66
     f80:	2d 20       	and	r2, r13

00000f82 <FOURMINUS>:
     f82:	04 06       	cpc	r0, r20
     f84:	04 00       	.word	0x0004	; ????
     f86:	f0 04       	cpc	r15, r0
     f88:	ee 01       	movw	r28, r28

00000f8a <is_TWOTO>:
     f8a:	7c 0f       	add	r23, r28
     f8c:	02 32       	cpi	r16, 0x22	; 34
     f8e:	21 20       	and	r2, r1

00000f90 <TWOTO>:
     f90:	7e 04       	cpc	r7, r14
     f92:	96 04       	cpc	r9, r6
     f94:	76 03       	mulsu	r23, r22
     f96:	8a 07       	cpc	r24, r26
     f98:	76 03       	mulsu	r23, r22
     f9a:	ee 01       	movw	r28, r28

00000f9c <is_TWOAT>:
     f9c:	8a 0f       	add	r24, r26
     f9e:	02 32       	cpi	r16, 0x22	; 34
     fa0:	40 20       	and	r4, r0

00000fa2 <TWOAT>:
     fa2:	6c 04       	cpc	r6, r12
     fa4:	8a 07       	cpc	r24, r26
     fa6:	8e 03       	fmulsu	r16, r22
     fa8:	7e 04       	cpc	r7, r14
     faa:	8e 03       	fmulsu	r16, r22
     fac:	ee 01       	movw	r28, r28

00000fae <is_TWOTOR>:
     fae:	9c 0f       	add	r25, r28
     fb0:	03 32       	cpi	r16, 0x23	; 35
     fb2:	3e 52       	subi	r19, 0x2E	; 46

00000fb4 <TWOTOR>:
     fb4:	7e 04       	cpc	r7, r14
     fb6:	d6 03       	fmuls	r21, r22
     fb8:	d6 03       	fmuls	r21, r22
     fba:	ee 01       	movw	r28, r28

00000fbc <is_TWORTO>:
     fbc:	ae 0f       	add	r26, r30
     fbe:	03 32       	cpi	r16, 0x23	; 35
     fc0:	52 3e       	cpi	r21, 0xE2	; 226

00000fc2 <TWORTO>:
     fc2:	d6 03       	fmuls	r21, r22
     fc4:	d6 03       	fmuls	r21, r22
     fc6:	7e 04       	cpc	r7, r14
     fc8:	ee 01       	movw	r28, r28

00000fca <is_TWORAT>:
     fca:	bc 0f       	add	r27, r28
     fcc:	03 32       	cpi	r16, 0x23	; 35
     fce:	52 40       	sbci	r21, 0x02	; 2

00000fd0 <TWORAT>:
     fd0:	d6 03       	fmuls	r21, r22
     fd2:	d6 03       	fmuls	r21, r22
     fd4:	96 04       	cpc	r9, r6
     fd6:	96 04       	cpc	r9, r6
     fd8:	ba 03       	fmulsu	r19, r18
     fda:	ba 03       	fmulsu	r19, r18
     fdc:	7e 04       	cpc	r7, r14
     fde:	ee 01       	movw	r28, r28

00000fe0 <is_TWODROP>:
     fe0:	ca 0f       	add	r28, r26
     fe2:	05 32       	cpi	r16, 0x25	; 37
     fe4:	44 52       	subi	r20, 0x24	; 36
     fe6:	4f 50       	subi	r20, 0x0F	; 15

00000fe8 <TWODROP>:
     fe8:	5c 04       	cpc	r5, r12
     fea:	5c 04       	cpc	r5, r12
     fec:	ee 01       	movw	r28, r28

00000fee <is_TWODUP>:
     fee:	e0 0f       	add	r30, r16
     ff0:	04 32       	cpi	r16, 0x24	; 36
     ff2:	44 55       	subi	r20, 0x54	; 84
     ff4:	50 20       	and	r5, r0

00000ff6 <TWODUP>:
     ff6:	96 04       	cpc	r9, r6
     ff8:	96 04       	cpc	r9, r6
     ffa:	ee 01       	movw	r28, r28

00000ffc <is_TWOSWAP>:
     ffc:	ee 0f       	add	r30, r30
     ffe:	05 32       	cpi	r16, 0x25	; 37
    1000:	53 57       	subi	r21, 0x73	; 115
    1002:	41 50       	subi	r20, 0x01	; 1

00001004 <TWOSWAP>:
    1004:	0a 07       	cpc	r16, r26
    1006:	ba 03       	fmulsu	r19, r18
    1008:	0a 07       	cpc	r16, r26
    100a:	ba 03       	fmulsu	r19, r18
    100c:	ee 01       	movw	r28, r28

0000100e <is_DPLUS>:
    100e:	fc 0f       	add	r31, r28
    1010:	02 44       	sbci	r16, 0x42	; 66
    1012:	2b 20       	and	r2, r11

00001014 <DPLUS>:
    1014:	ba 03       	fmulsu	r19, r18
    1016:	7e 04       	cpc	r7, r14
    1018:	ba 03       	fmulsu	r19, r18
    101a:	56 03       	mulsu	r21, r22
    101c:	d6 03       	fmuls	r21, r22
    101e:	d6 03       	fmuls	r21, r22
    1020:	dc 04       	cpc	r13, r12
    1022:	dc 04       	cpc	r13, r12
    1024:	ee 01       	movw	r28, r28

00001026 <is_DMINUS>:
    1026:	0e 10       	cpse	r0, r14
    1028:	02 44       	sbci	r16, 0x42	; 66
    102a:	2d 20       	and	r2, r13

0000102c <DMINUS>:
    102c:	ba 03       	fmulsu	r19, r18
    102e:	7e 04       	cpc	r7, r14
    1030:	ba 03       	fmulsu	r19, r18
    1032:	26 0d       	add	r18, r6
    1034:	d6 03       	fmuls	r21, r22
    1036:	d6 03       	fmuls	r21, r22
    1038:	f0 04       	cpc	r15, r0
    103a:	f0 04       	cpc	r15, r0
    103c:	ee 01       	movw	r28, r28

0000103e <is_DNEG>:
    103e:	26 10       	cpse	r2, r6
    1040:	07 44       	sbci	r16, 0x47	; 71
    1042:	4e 45       	sbci	r20, 0x5E	; 94
    1044:	47 41       	sbci	r20, 0x17	; 23
    1046:	54 45       	sbci	r21, 0x54	; 84

00001048 <DNEG>:
    1048:	62 05       	cpc	r22, r2
    104a:	ba 03       	fmulsu	r19, r18
    104c:	62 05       	cpc	r22, r2
    104e:	8c 06       	cpc	r8, r28
    1050:	56 03       	mulsu	r21, r22
    1052:	d6 03       	fmuls	r21, r22
    1054:	dc 04       	cpc	r13, r12
    1056:	ee 01       	movw	r28, r28

00001058 <is_DABS>:
    1058:	3e 10       	cpse	r3, r14
    105a:	04 44       	sbci	r16, 0x44	; 68
    105c:	41 42       	sbci	r20, 0x21	; 33
    105e:	53 20       	and	r5, r3

00001060 <DABS>:
    1060:	6c 04       	cpc	r6, r12
    1062:	6e 07       	cpc	r22, r30
    1064:	e4 05       	cpc	r30, r4
    1066:	6a 10       	cpse	r6, r10
    1068:	48 10       	cpse	r4, r8
    106a:	ee 01       	movw	r28, r28

0000106c <is_HASH>:
    106c:	58 10       	cpse	r5, r8
    106e:	04 48       	sbci	r16, 0x84	; 132
    1070:	41 53       	subi	r20, 0x31	; 49
    1072:	48 20       	and	r4, r8

00001074 <HASH>:
    1074:	00 00       	nop
    1076:	66 24       	eor	r6, r6
    1078:	65 e0       	ldi	r22, 0x05	; 5
    107a:	75 e1       	ldi	r23, 0x15	; 21
    107c:	f9 91       	ld	r31, Y+
    107e:	e9 91       	ld	r30, Y+
    1080:	98 17       	cp	r25, r24
    1082:	79 f0       	breq	.+30     	; 0x10a2 <HASH+0x2e>
    1084:	71 90       	ld	r7, Z+
    1086:	67 0d       	add	r22, r7
    1088:	76 1d       	adc	r23, r6
    108a:	66 0f       	add	r22, r22
    108c:	77 1f       	adc	r23, r23
    108e:	66 0f       	add	r22, r22
    1090:	77 1f       	adc	r23, r23
    1092:	66 0f       	add	r22, r22
    1094:	77 1f       	adc	r23, r23
    1096:	66 0f       	add	r22, r22
    1098:	77 1f       	adc	r23, r23
    109a:	66 0f       	add	r22, r22
    109c:	77 1f       	adc	r23, r23
    109e:	01 97       	sbiw	r24, 0x01	; 1
    10a0:	ef cf       	rjmp	.-34     	; 0x1080 <HASH+0xc>
    10a2:	cb 01       	movw	r24, r22
    10a4:	0c 94 08 01 	jmp	0x210	; 0x210 <_link>

000010a8 <is_RANDOM>:
    10a8:	6c 10       	cpse	r6, r12
    10aa:	06 52       	subi	r16, 0x26	; 38
    10ac:	41 4e       	sbci	r20, 0xE1	; 225
    10ae:	44 4f       	sbci	r20, 0xF4	; 244
    10b0:	4d 20       	and	r4, r13

000010b2 <RANDOM>:
    10b2:	00 00       	nop
    10b4:	40 91 c6 01 	lds	r20, 0x01C6	; 0x8001c6 <_end+0xc6>
    10b8:	50 91 c6 01 	lds	r21, 0x01C6	; 0x8001c6 <_end+0xc6>
    10bc:	45 27       	eor	r20, r21
    10be:	42 95       	swap	r20
    10c0:	54 0f       	add	r21, r20
    10c2:	ca 01       	movw	r24, r20
    10c4:	08 c0       	rjmp	.+16     	; 0x10d6 <_seed>

000010c6 <is_RAND>:
    10c6:	a8 10       	cpse	r10, r8
    10c8:	04 52       	subi	r16, 0x24	; 36
    10ca:	41 4e       	sbci	r20, 0xE1	; 225
    10cc:	44 20       	and	r4, r4

000010ce <RAND>:
    10ce:	00 00       	nop
    10d0:	ac 01       	movw	r20, r24
    10d2:	99 91       	ld	r25, Y+
    10d4:	89 91       	ld	r24, Y+

000010d6 <_seed>:
    10d6:	40 93 c6 01 	sts	0x01C6, r20	; 0x8001c6 <_end+0xc6>
    10da:	50 93 c7 01 	sts	0x01C7, r21	; 0x8001c7 <_end+0xc7>
    10de:	0c 94 08 01 	jmp	0x210	; 0x210 <_link>

000010e2 <is_ABS>:
    10e2:	c6 10       	cpse	r12, r6
    10e4:	03 41       	sbci	r16, 0x13	; 19
    10e6:	42 53       	subi	r20, 0x32	; 50

000010e8 <ABS>:
    10e8:	6c 04       	cpc	r6, r12
    10ea:	6e 07       	cpc	r22, r30
    10ec:	e4 05       	cpc	r30, r4
    10ee:	f2 10       	cpse	r15, r2
    10f0:	76 05       	cpc	r23, r6
    10f2:	ee 01       	movw	r28, r28

000010f4 <is_MAX>:
    10f4:	e2 10       	cpse	r14, r2
    10f6:	03 4d       	sbci	r16, 0xD3	; 211
    10f8:	41 58       	subi	r20, 0x81	; 129

000010fa <MAX>:
    10fa:	f6 0f       	add	r31, r22
    10fc:	c4 04       	cpc	r12, r4
    10fe:	e4 05       	cpc	r30, r4
    1100:	04 11       	cpse	r16, r4
    1102:	7e 04       	cpc	r7, r14
    1104:	5c 04       	cpc	r5, r12
    1106:	ee 01       	movw	r28, r28

00001108 <is_MIN>:
    1108:	f4 10       	cpse	r15, r4
    110a:	03 4d       	sbci	r16, 0xD3	; 211
    110c:	49 4e       	sbci	r20, 0xE9	; 233

0000110e <MIN>:
    110e:	7e 04       	cpc	r7, r14
    1110:	fa 10       	cpse	r15, r10
    1112:	ee 01       	movw	r28, r28

00001114 <is_WITHIN>:
    1114:	08 11       	cpse	r16, r8
    1116:	06 57       	subi	r16, 0x76	; 118
    1118:	49 54       	subi	r20, 0x49	; 73
    111a:	48 49       	sbci	r20, 0x98	; 152
    111c:	4e 20       	and	r4, r14

0000111e <WITHIN>:
    111e:	96 04       	cpc	r9, r6
    1120:	f0 04       	cpc	r15, r0
    1122:	ba 03       	fmulsu	r19, r18
    1124:	f0 04       	cpc	r15, r0
    1126:	d6 03       	fmuls	r21, r22
    1128:	3a 03       	fmul	r19, r18
    112a:	ee 01       	movw	r28, r28

0000112c <is_UMPASS>:
    112c:	14 11       	cpse	r17, r4
    112e:	06 55       	subi	r16, 0x56	; 86
    1130:	4d 50       	subi	r20, 0x0D	; 13
    1132:	41 53       	subi	r20, 0x31	; 49
    1134:	53 20       	and	r5, r3

00001136 <UMPASS>:
    1136:	00 00       	nop
    1138:	6c 04       	cpc	r6, r12
    113a:	56 03       	mulsu	r21, r22
    113c:	ba 03       	fmulsu	r19, r18
    113e:	ba 03       	fmulsu	r19, r18
    1140:	6c 04       	cpc	r6, r12
    1142:	56 03       	mulsu	r21, r22
    1144:	d6 03       	fmuls	r21, r22
    1146:	dc 04       	cpc	r13, r12
    1148:	ee 01       	movw	r28, r28

0000114a <is_UMDIVMOD>:
    114a:	2c 11       	cpse	r18, r12
    114c:	06 55       	subi	r16, 0x56	; 86
    114e:	4d 2f       	mov	r20, r29
    1150:	4d 4f       	sbci	r20, 0xFD	; 253
    1152:	44 20       	and	r4, r4

00001154 <UMDIVMOD>:
    1154:	00 00       	nop
    1156:	96 04       	cpc	r9, r6
    1158:	96 04       	cpc	r9, r6
    115a:	32 0d       	add	r19, r2
    115c:	e4 05       	cpc	r30, r4
    115e:	98 11       	cpse	r25, r8
    1160:	76 05       	cpc	r23, r6
    1162:	04 06       	cpc	r0, r20
    1164:	0f 00       	.word	0x000f	; ????
    1166:	0a 0b       	sbc	r16, r26
    1168:	ba 03       	fmulsu	r19, r18
    116a:	36 11       	cpse	r19, r6
    116c:	6c 04       	cpc	r6, r12
    116e:	d6 03       	fmuls	r21, r22
    1170:	f2 03       	fmuls	r23, r18
    1172:	7e 04       	cpc	r7, r14
    1174:	ba 03       	fmulsu	r19, r18
    1176:	56 03       	mulsu	r21, r22
    1178:	d6 03       	fmuls	r21, r22
    117a:	36 05       	cpc	r19, r6
    117c:	e4 05       	cpc	r30, r4
    117e:	8c 11       	cpse	r24, r12
    1180:	ba 03       	fmulsu	r19, r18
    1182:	5c 04       	cpc	r5, r12
    1184:	a4 07       	cpc	r26, r20
    1186:	d6 03       	fmuls	r21, r22
    1188:	c0 05       	cpc	r28, r0
    118a:	8e 11       	cpse	r24, r14
    118c:	5c 04       	cpc	r5, r12
    118e:	d6 03       	fmuls	r21, r22
    1190:	30 0b       	sbc	r19, r16
    1192:	5c 04       	cpc	r5, r12
    1194:	7e 04       	cpc	r7, r14
    1196:	ee 01       	movw	r28, r28
    1198:	5c 04       	cpc	r5, r12
    119a:	5c 04       	cpc	r5, r12
    119c:	5c 04       	cpc	r5, r12
    119e:	ec 02       	muls	r30, r28
    11a0:	6c 04       	cpc	r6, r12
    11a2:	ee 01       	movw	r28, r28

000011a4 <is_MDIVMOD>:
    11a4:	4a 11       	cpse	r20, r10
    11a6:	05 4d       	sbci	r16, 0xD5	; 213
    11a8:	2f 4d       	sbci	r18, 0xDF	; 223
    11aa:	4f 44       	sbci	r20, 0x4F	; 79

000011ac <MDIVMOD>:
    11ac:	00 00       	nop
    11ae:	6c 04       	cpc	r6, r12
    11b0:	6e 07       	cpc	r22, r30
    11b2:	6c 04       	cpc	r6, r12
    11b4:	ba 03       	fmulsu	r19, r18
    11b6:	e4 05       	cpc	r30, r4
    11b8:	c2 11       	cpse	r28, r2
    11ba:	76 05       	cpc	r23, r6
    11bc:	ba 03       	fmulsu	r19, r18
    11be:	48 10       	cpse	r4, r8
    11c0:	d6 03       	fmuls	r21, r22
    11c2:	ba 03       	fmulsu	r19, r18
    11c4:	6c 04       	cpc	r6, r12
    11c6:	6e 07       	cpc	r22, r30
    11c8:	e4 05       	cpc	r30, r4
    11ca:	d0 11       	cpse	r29, r0
    11cc:	f2 03       	fmuls	r23, r18
    11ce:	dc 04       	cpc	r13, r12
    11d0:	d6 03       	fmuls	r21, r22
    11d2:	54 11       	cpse	r21, r4
    11d4:	d6 03       	fmuls	r21, r22
    11d6:	e4 05       	cpc	r30, r4
    11d8:	e0 11       	cpse	r30, r0
    11da:	7e 04       	cpc	r7, r14
    11dc:	76 05       	cpc	r23, r6
    11de:	7e 04       	cpc	r7, r14
    11e0:	ee 01       	movw	r28, r28

000011e2 <is_DIVMOD>:
    11e2:	a4 11       	cpse	r26, r4
    11e4:	04 2f       	mov	r16, r20
    11e6:	4d 4f       	sbci	r20, 0xFD	; 253
    11e8:	44 20       	and	r4, r4

000011ea <DIVMOD>:
    11ea:	00 00       	nop
    11ec:	96 04       	cpc	r9, r6
    11ee:	6e 07       	cpc	r22, r30
    11f0:	7e 04       	cpc	r7, r14
    11f2:	ac 11       	cpse	r26, r12
    11f4:	ee 01       	movw	r28, r28

000011f6 <is_MOD>:
    11f6:	e2 11       	cpse	r30, r2
    11f8:	03 4d       	sbci	r16, 0xD3	; 211
    11fa:	4f 44       	sbci	r20, 0x4F	; 79

000011fc <MOD>:
    11fc:	00 00       	nop
    11fe:	ea 11       	cpse	r30, r10
    1200:	5c 04       	cpc	r5, r12
    1202:	ee 01       	movw	r28, r28

00001204 <is_DIV>:
    1204:	f6 11       	cpse	r31, r6
    1206:	01 2f       	mov	r16, r17

00001208 <DIV>:
    1208:	00 00       	nop
    120a:	ea 11       	cpse	r30, r10
    120c:	7e 04       	cpc	r7, r14
    120e:	5c 04       	cpc	r5, r12
    1210:	ee 01       	movw	r28, r28

00001212 <is_UMSTAR>:
    1212:	04 12       	cpse	r0, r20
    1214:	03 55       	subi	r16, 0x53	; 83
    1216:	4d 2a       	or	r4, r29

00001218 <UMSTAR>:
    1218:	00 00       	nop
    121a:	7a 06       	cpc	r7, r26
    121c:	7e 04       	cpc	r7, r14
    121e:	04 06       	cpc	r0, r20
    1220:	0f 00       	.word	0x000f	; ????
    1222:	0a 0b       	sbc	r16, r26
    1224:	36 11       	cpse	r19, r6
    1226:	d6 03       	fmuls	r21, r22
    1228:	e4 05       	cpc	r30, r4
    122a:	36 12       	cpse	r3, r22
    122c:	ba 03       	fmulsu	r19, r18
    122e:	96 04       	cpc	r9, r6
    1230:	56 03       	mulsu	r21, r22
    1232:	d6 03       	fmuls	r21, r22
    1234:	dc 04       	cpc	r13, r12
    1236:	30 0b       	sbc	r19, r16
    1238:	0a 07       	cpc	r16, r26
    123a:	5c 04       	cpc	r5, r12
    123c:	ee 01       	movw	r28, r28

0000123e <is_STAR>:
    123e:	12 12       	cpse	r1, r18
    1240:	01 2a       	or	r0, r17

00001242 <STAR>:
    1242:	00 00       	nop
    1244:	18 12       	cpse	r1, r24
    1246:	5c 04       	cpc	r5, r12
    1248:	ee 01       	movw	r28, r28

0000124a <is_MSTAR>:
    124a:	3e 12       	cpse	r3, r30
    124c:	02 4d       	sbci	r16, 0xD2	; 210
    124e:	2a 20       	and	r2, r10

00001250 <MSTAR>:
    1250:	00 00       	nop
    1252:	96 04       	cpc	r9, r6
    1254:	96 04       	cpc	r9, r6
    1256:	4a 05       	cpc	r20, r10
    1258:	6e 07       	cpc	r22, r30
    125a:	ba 03       	fmulsu	r19, r18
    125c:	e8 10       	cpse	r14, r8
    125e:	7e 04       	cpc	r7, r14
    1260:	e8 10       	cpse	r14, r8
    1262:	18 12       	cpse	r1, r24
    1264:	d6 03       	fmuls	r21, r22
    1266:	e4 05       	cpc	r30, r4
    1268:	6c 12       	cpse	r6, r28
    126a:	48 10       	cpse	r4, r8
    126c:	ee 01       	movw	r28, r28

0000126e <is_STARDIVMOD>:
    126e:	4a 12       	cpse	r4, r26
    1270:	05 2a       	or	r0, r21
    1272:	2f 4d       	sbci	r18, 0xDF	; 223
    1274:	4f 44       	sbci	r20, 0x4F	; 79

00001276 <STARDIVMOD>:
    1276:	00 00       	nop
    1278:	ba 03       	fmulsu	r19, r18
    127a:	50 12       	cpse	r5, r16
    127c:	ba 03       	fmulsu	r19, r18
    127e:	ac 11       	cpse	r26, r12
    1280:	ee 01       	movw	r28, r28

00001282 <is_STARDIV>:
    1282:	6e 12       	cpse	r6, r30
    1284:	02 2a       	or	r0, r18
    1286:	2f 20       	and	r2, r15

00001288 <STARDIV>:
    1288:	00 00       	nop
    128a:	76 12       	cpse	r7, r22
    128c:	7e 04       	cpc	r7, r14
    128e:	5c 04       	cpc	r5, r12
    1290:	ee 01       	movw	r28, r28

00001292 <is_LDFLASH>:
    1292:	82 12       	cpse	r8, r18
    1294:	0c 28       	or	r0, r12
    1296:	6c 6f       	ori	r22, 0xFC	; 252
    1298:	61 64       	ori	r22, 0x41	; 65
    129a:	5f 66       	ori	r21, 0x6F	; 111
    129c:	6c 61       	ori	r22, 0x1C	; 28
    129e:	73 68       	ori	r23, 0x83	; 131
    12a0:	29 20       	and	r2, r9

000012a2 <LDFLASH>:
    12a2:	00 00       	nop
    12a4:	f9 91       	ld	r31, Y+
    12a6:	e9 91       	ld	r30, Y+
    12a8:	ce 93       	st	-X, r28
    12aa:	de 93       	st	-X, r29
    12ac:	ec 01       	movw	r28, r24
    12ae:	e6 95       	lsr	r30
    12b0:	ff 1f       	adc	r31, r31
    12b2:	40 91 80 00 	lds	r20, 0x0080	; 0x800080 <__DATA_REGION_ORIGIN__+0x20>
    12b6:	55 91       	lpm	r21, Z+
    12b8:	5d 93       	st	X+, r21
    12ba:	4a 95       	dec	r20
    12bc:	e1 f7       	brne	.-8      	; 0x12b6 <LDFLASH+0x14>
    12be:	dd 91       	ld	r29, X+
    12c0:	cd 91       	ld	r28, X+
    12c2:	99 91       	ld	r25, Y+
    12c4:	89 91       	ld	r24, Y+
    12c6:	0c 94 08 01 	jmp	0x210	; 0x210 <_link>

000012ca <is_SVFLASH>:
    12ca:	92 12       	cpse	r9, r18
    12cc:	0c 28       	or	r0, r12
    12ce:	73 61       	ori	r23, 0x13	; 19
    12d0:	76 65       	ori	r23, 0x56	; 86
    12d2:	5f 66       	ori	r21, 0x6F	; 111
    12d4:	6c 61       	ori	r22, 0x1C	; 28
    12d6:	73 68       	ori	r23, 0x83	; 131
    12d8:	29 20       	and	r2, r9

000012da <SVFLASH>:
    12da:	00 00       	nop
    12dc:	fc 01       	movw	r30, r24
    12de:	79 91       	ld	r23, Y+
    12e0:	69 91       	ld	r22, Y+
    12e2:	ce 93       	st	-X, r28
    12e4:	de 93       	st	-X, r29
    12e6:	eb 01       	movw	r28, r22
    12e8:	ee 93       	st	-X, r30
    12ea:	fe 93       	st	-X, r31
    12ec:	83 e0       	ldi	r24, 0x03	; 3
    12ee:	17 d0       	rcall	.+46     	; 0x131e <_does_spm>
    12f0:	ee 27       	eor	r30, r30
    12f2:	ff 27       	eor	r31, r31
    12f4:	70 e8       	ldi	r23, 0x80	; 128
    12f6:	0d 90       	ld	r0, X+
    12f8:	1d 90       	ld	r1, X+
    12fa:	81 e0       	ldi	r24, 0x01	; 1
    12fc:	10 d0       	rcall	.+32     	; 0x131e <_does_spm>
    12fe:	32 96       	adiw	r30, 0x02	; 2
    1300:	7a 95       	dec	r23
    1302:	7a 95       	dec	r23
    1304:	c1 f7       	brne	.-16     	; 0x12f6 <SVFLASH+0x1c>
    1306:	fd 91       	ld	r31, X+
    1308:	ed 91       	ld	r30, X+
    130a:	85 e0       	ldi	r24, 0x05	; 5
    130c:	08 d0       	rcall	.+16     	; 0x131e <_does_spm>
    130e:	81 e1       	ldi	r24, 0x11	; 17
    1310:	06 d0       	rcall	.+12     	; 0x131e <_does_spm>
    1312:	dd 91       	ld	r29, X+
    1314:	cd 91       	ld	r28, X+
    1316:	99 91       	ld	r25, Y+
    1318:	89 91       	ld	r24, Y+
    131a:	0c 94 08 01 	jmp	0x210	; 0x210 <_link>

0000131e <_does_spm>:
    131e:	f8 94       	cli
    1320:	2f b6       	in	r2, 0x3f	; 63
    1322:	0e 94 e9 3f 	call	0x7fd2	; 0x7fd2 <FLASH_END+0x3fd3>
    1326:	2f be       	out	0x3f, r2	; 63
    1328:	78 94       	sei
    132a:	07 b6       	in	r0, 0x37	; 55
    132c:	00 fc       	sbrc	r0, 0
    132e:	fd cf       	rjmp	.-6      	; 0x132a <_does_spm+0xc>
    1330:	08 95       	ret

00001332 <is_DIGIT>:
    1332:	ca 12       	cpse	r12, r26
    1334:	05 44       	sbci	r16, 0x45	; 69
    1336:	49 47       	sbci	r20, 0x79	; 121
    1338:	49 54       	subi	r20, 0x49	; 73

0000133a <DIGIT>:
    133a:	04 06       	cpc	r0, r20
    133c:	30 00       	.word	0x0030	; ????
    133e:	f0 04       	cpc	r15, r0
    1340:	6c 04       	cpc	r6, r12
    1342:	7a 06       	cpc	r7, r26
    1344:	c4 04       	cpc	r12, r4
    1346:	e4 05       	cpc	r30, r4
    1348:	74 13       	cpse	r23, r20
    134a:	6c 04       	cpc	r6, r12
    134c:	04 06       	cpc	r0, r20
    134e:	09 00       	.word	0x0009	; ????
    1350:	c4 04       	cpc	r12, r4
    1352:	e4 05       	cpc	r30, r4
    1354:	7a 13       	cpse	r23, r26
    1356:	6c 04       	cpc	r6, r12
    1358:	04 06       	cpc	r0, r20
    135a:	11 00       	.word	0x0011	; ????
    135c:	c4 04       	cpc	r12, r4
    135e:	e4 05       	cpc	r30, r4
    1360:	74 13       	cpse	r23, r20
    1362:	04 06       	cpc	r0, r20
    1364:	07 00       	.word	0x0007	; ????
    1366:	f0 04       	cpc	r15, r0
    1368:	6c 04       	cpc	r6, r12
    136a:	2a 08       	sbc	r2, r10
    136c:	f0 04       	cpc	r15, r0
    136e:	c4 04       	cpc	r12, r4
    1370:	e4 05       	cpc	r30, r4
    1372:	7a 13       	cpse	r23, r26
    1374:	5c 04       	cpc	r5, r12
    1376:	02 03       	mulsu	r16, r18
    1378:	ee 01       	movw	r28, r28
    137a:	5c 04       	cpc	r5, r12
    137c:	ec 02       	muls	r30, r28
    137e:	ee 01       	movw	r28, r28

00001380 <is_LTSNUM>:
    1380:	32 13       	cpse	r19, r18
    1382:	02 3c       	cpi	r16, 0xC2	; 194
    1384:	23 20       	and	r2, r3

00001386 <LTSNUM>:
    1386:	82 08       	sbc	r8, r2
    1388:	04 06       	cpc	r0, r20
    138a:	dc 01       	movw	r26, r24
    138c:	76 03       	mulsu	r23, r22
    138e:	ee 01       	movw	r28, r28

00001390 <is_HOLD>:
    1390:	80 13       	cpse	r24, r16
    1392:	04 48       	sbci	r16, 0x84	; 132
    1394:	4f 4c       	sbci	r20, 0xCF	; 207
    1396:	44 20       	and	r4, r4

00001398 <HOLD>:
    1398:	dc 01       	movw	r26, r24
    139a:	8e 03       	fmulsu	r16, r22
    139c:	f6 07       	cpc	r31, r22
    139e:	6c 04       	cpc	r6, r12
    13a0:	dc 01       	movw	r26, r24
    13a2:	76 03       	mulsu	r23, r22
    13a4:	52 06       	cpc	r5, r18
    13a6:	ee 01       	movw	r28, r28

000013a8 <is_SNUM>:
    13a8:	90 13       	cpse	r25, r16
    13aa:	01 23       	and	r16, r17

000013ac <SNUM>:
    13ac:	7a 06       	cpc	r7, r26
    13ae:	2a 08       	sbc	r2, r10
    13b0:	8e 03       	fmulsu	r16, r22
    13b2:	54 11       	cpse	r21, r4
    13b4:	ba 03       	fmulsu	r19, r18
    13b6:	2a 08       	sbc	r2, r10
    13b8:	8e 03       	fmulsu	r16, r22
    13ba:	54 11       	cpse	r21, r4
    13bc:	7e 04       	cpc	r7, r14
    13be:	3a 13       	cpse	r19, r26
    13c0:	98 13       	cpse	r25, r24
    13c2:	d6 03       	fmuls	r21, r22
    13c4:	ee 01       	movw	r28, r28

000013c6 <is_SNUMS>:
    13c6:	a8 13       	cpse	r26, r24
    13c8:	02 23       	and	r16, r18
    13ca:	53 20       	and	r5, r3

000013cc <SNUMS>:
    13cc:	ac 13       	cpse	r26, r28
    13ce:	f6 0f       	add	r31, r22
    13d0:	36 05       	cpc	r19, r6
    13d2:	16 03       	mulsu	r17, r22
    13d4:	e4 05       	cpc	r30, r4
    13d6:	cc 13       	cpse	r28, r28
    13d8:	ee 01       	movw	r28, r28

000013da <is_SIGN>:
    13da:	c6 13       	cpse	r28, r22
    13dc:	04 53       	subi	r16, 0x34	; 52
    13de:	49 47       	sbci	r20, 0x79	; 121
    13e0:	4e 20       	and	r4, r14

000013e2 <SIGN>:
    13e2:	6e 07       	cpc	r22, r30
    13e4:	e4 05       	cpc	r30, r4
    13e6:	ee 13       	cpse	r30, r30
    13e8:	e8 1f       	adc	r30, r24
    13ea:	f0 04       	cpc	r15, r0
    13ec:	98 13       	cpse	r25, r24
    13ee:	ee 01       	movw	r28, r28

000013f0 <is_SNUMGT>:
    13f0:	da 13       	cpse	r29, r26
    13f2:	02 23       	and	r16, r18
    13f4:	3e 20       	and	r3, r14

000013f6 <SNUMGT>:
    13f6:	e8 0f       	add	r30, r24
    13f8:	dc 01       	movw	r26, r24
    13fa:	8e 03       	fmulsu	r16, r22
    13fc:	82 08       	sbc	r8, r2
    13fe:	96 04       	cpc	r9, r6
    1400:	f0 04       	cpc	r15, r0
    1402:	ee 01       	movw	r28, r28

00001404 <is_UDOTP>:
    1404:	f0 13       	cpse	r31, r16
    1406:	04 28       	or	r0, r4
    1408:	55 2e       	mov	r5, r21
    140a:	29 20       	and	r2, r9

0000140c <UDOTP>:
    140c:	7a 06       	cpc	r7, r26
    140e:	86 13       	cpse	r24, r22
    1410:	cc 13       	cpse	r28, r28
    1412:	f6 13       	cpse	r31, r22
    1414:	ee 01       	movw	r28, r28

00001416 <is_UDOT>:
    1416:	04 14       	cp	r0, r4
    1418:	02 55       	subi	r16, 0x52	; 82
    141a:	2e 20       	and	r2, r14

0000141c <UDOT>:
    141c:	0c 14       	cp	r0, r12
    141e:	02 0d       	add	r16, r2
    1420:	c4 0c       	add	r12, r4
    1422:	ee 01       	movw	r28, r28

00001424 <is_UDOTR>:
    1424:	16 14       	cp	r1, r6
    1426:	03 55       	subi	r16, 0x53	; 83
    1428:	2e 52       	subi	r18, 0x2E	; 46

0000142a <UDOTR>:
    142a:	ba 03       	fmulsu	r19, r18
    142c:	0c 14       	cp	r0, r12
    142e:	d6 03       	fmuls	r21, r22
    1430:	96 04       	cpc	r9, r6
    1432:	f0 04       	cpc	r15, r0
    1434:	d6 0c       	add	r13, r6
    1436:	ee 01       	movw	r28, r28

00001438 <is_DOTP>:
    1438:	24 14       	cp	r2, r4
    143a:	03 28       	or	r0, r3
    143c:	2e 29       	or	r18, r14

0000143e <DOTP>:
    143e:	6c 04       	cpc	r6, r12
    1440:	e8 10       	cpse	r14, r8
    1442:	00 00       	nop
    1444:	86 13       	cpse	r24, r22
    1446:	cc 13       	cpse	r28, r28
    1448:	0a 07       	cpc	r16, r26
    144a:	e2 13       	cpse	r30, r18
    144c:	f6 13       	cpse	r31, r22
    144e:	ee 01       	movw	r28, r28

00001450 <is_DOT>:
    1450:	38 14       	cp	r3, r8
    1452:	01 2e       	mov	r0, r17

00001454 <DOT>:
    1454:	3e 14       	cp	r3, r14
    1456:	02 0d       	add	r16, r2
    1458:	c4 0c       	add	r12, r4
    145a:	ee 01       	movw	r28, r28

0000145c <is_QUESTION>:
    145c:	50 14       	cp	r5, r0
    145e:	01 3f       	cpi	r16, 0xF1	; 241

00001460 <QUESTION>:
    1460:	8e 03       	fmulsu	r16, r22
    1462:	54 14       	cp	r5, r4
    1464:	ee 01       	movw	r28, r28

00001466 <is_DOTR>:
    1466:	5c 14       	cp	r5, r12
    1468:	02 2e       	mov	r0, r18
    146a:	52 20       	and	r5, r2

0000146c <DOTR>:
    146c:	ba 03       	fmulsu	r19, r18
    146e:	3e 14       	cp	r3, r14
    1470:	d6 03       	fmuls	r21, r22
    1472:	96 04       	cpc	r9, r6
    1474:	f0 04       	cpc	r15, r0
    1476:	d6 0c       	add	r13, r6
    1478:	02 0d       	add	r16, r2
    147a:	ee 01       	movw	r28, r28

0000147c <is_UDDOTP>:
    147c:	66 14       	cp	r6, r6
    147e:	05 28       	or	r0, r5
    1480:	55 44       	sbci	r21, 0x45	; 69
    1482:	2e 29       	or	r18, r14

00001484 <UDDOTP>:
    1484:	86 13       	cpse	r24, r22
    1486:	cc 13       	cpse	r28, r28
    1488:	f6 13       	cpse	r31, r22
    148a:	ee 01       	movw	r28, r28

0000148c <is_UDDOT>:
    148c:	7c 14       	cp	r7, r12
    148e:	03 55       	subi	r16, 0x53	; 83
    1490:	44 2e       	mov	r4, r20

00001492 <UDDOT>:
    1492:	84 14       	cp	r8, r4
    1494:	02 0d       	add	r16, r2
    1496:	c4 0c       	add	r12, r4
    1498:	ee 01       	movw	r28, r28

0000149a <is_UDDOTR>:
    149a:	8c 14       	cp	r8, r12
    149c:	04 55       	subi	r16, 0x54	; 84
    149e:	44 2e       	mov	r4, r20
    14a0:	52 20       	and	r5, r2

000014a2 <UDDOTR>:
    14a2:	ba 03       	fmulsu	r19, r18
    14a4:	84 14       	cp	r8, r4
    14a6:	d6 03       	fmuls	r21, r22
    14a8:	96 04       	cpc	r9, r6
    14aa:	f0 04       	cpc	r15, r0
    14ac:	d6 0c       	add	r13, r6
    14ae:	02 0d       	add	r16, r2
    14b0:	ee 01       	movw	r28, r28

000014b2 <is_DDOTP>:
    14b2:	9a 14       	cp	r9, r10
    14b4:	04 28       	or	r0, r4
    14b6:	44 2e       	mov	r4, r20
    14b8:	29 20       	and	r2, r9

000014ba <DDOTP>:
    14ba:	26 07       	cpc	r18, r22
    14bc:	60 10       	cpse	r6, r0
    14be:	86 13       	cpse	r24, r22
    14c0:	cc 13       	cpse	r28, r28
    14c2:	0a 07       	cpc	r16, r26
    14c4:	e2 13       	cpse	r30, r18
    14c6:	f6 13       	cpse	r31, r22
    14c8:	ee 01       	movw	r28, r28

000014ca <is_DDOT>:
    14ca:	b2 14       	cp	r11, r2
    14cc:	02 44       	sbci	r16, 0x42	; 66
    14ce:	2e 20       	and	r2, r14

000014d0 <DDOT>:
    14d0:	ba 14       	cp	r11, r10
    14d2:	02 0d       	add	r16, r2
    14d4:	c4 0c       	add	r12, r4
    14d6:	ee 01       	movw	r28, r28

000014d8 <is_DDOTR>:
    14d8:	ca 14       	cp	r12, r10
    14da:	03 44       	sbci	r16, 0x43	; 67
    14dc:	2e 52       	subi	r18, 0x2E	; 46

000014de <DDOTR>:
    14de:	ba 03       	fmulsu	r19, r18
    14e0:	ba 14       	cp	r11, r10
    14e2:	0a 07       	cpc	r16, r26
    14e4:	96 04       	cpc	r9, r6
    14e6:	d6 0c       	add	r13, r6
    14e8:	02 0d       	add	r16, r2
    14ea:	ee 01       	movw	r28, r28

000014ec <is_skipf>:
    14ec:	d8 14       	cp	r13, r8
    14ee:	06 28       	or	r0, r6
    14f0:	73 6b       	ori	r23, 0xB3	; 179
    14f2:	69 70       	andi	r22, 0x09	; 9
    14f4:	29 20       	and	r2, r9

000014f6 <skipf>:
    14f6:	00 00       	nop
    14f8:	99 27       	eor	r25, r25
    14fa:	f9 91       	ld	r31, Y+
    14fc:	e9 91       	ld	r30, Y+
    14fe:	60 81       	ld	r22, Z
    1500:	96 17       	cp	r25, r22
    1502:	21 f0       	breq	.+8      	; 0x150c <djbHASH+0x7>
    1504:	86 17       	cp	r24, r22
    1506:	21 f0       	breq	.+8      	; 0x1510 <djbHASH+0xb>
    1508:	31 96       	adiw	r30, 0x01	; 1
    150a:	f9 cf       	rjmp	.-14     	; 0x14fe <skipf+0x8>
    150c:	ee 27       	eor	r30, r30
    150e:	ff 27       	eor	r31, r31
    1510:	cf 01       	movw	r24, r30
    1512:	0c 94 08 01 	jmp	0x210	; 0x210 <_link>

00001516 <is_scanf>:
    1516:	ec 14       	cp	r14, r12
    1518:	06 28       	or	r0, r6
    151a:	73 63       	ori	r23, 0x33	; 51
    151c:	61 6e       	ori	r22, 0xE1	; 225
    151e:	29 20       	and	r2, r9

00001520 <scanf>:
    1520:	00 00       	nop
    1522:	99 27       	eor	r25, r25
    1524:	f9 91       	ld	r31, Y+
    1526:	e9 91       	ld	r30, Y+
    1528:	60 81       	ld	r22, Z
    152a:	96 17       	cp	r25, r22
    152c:	21 f0       	breq	.+8      	; 0x1536 <scanf+0x16>
    152e:	86 17       	cp	r24, r22
    1530:	21 f4       	brne	.+8      	; 0x153a <scanf+0x1a>
    1532:	31 96       	adiw	r30, 0x01	; 1
    1534:	f9 cf       	rjmp	.-14     	; 0x1528 <scanf+0x8>
    1536:	ee 27       	eor	r30, r30
    1538:	ff 27       	eor	r31, r31
    153a:	cf 01       	movw	r24, r30
    153c:	0c 94 08 01 	jmp	0x210	; 0x210 <_link>

00001540 <is_samef>:
    1540:	16 15       	cp	r17, r6
    1542:	06 28       	or	r0, r6
    1544:	73 61       	ori	r23, 0x13	; 19
    1546:	6d 65       	ori	r22, 0x5D	; 93
    1548:	29 20       	and	r2, r9

0000154a <samef>:
    154a:	00 00       	nop
    154c:	99 27       	eor	r25, r25
    154e:	79 91       	ld	r23, Y+
    1550:	69 91       	ld	r22, Y+
    1552:	f9 91       	ld	r31, Y+
    1554:	e9 91       	ld	r30, Y+
    1556:	ce 93       	st	-X, r28
    1558:	de 93       	st	-X, r29
    155a:	eb 01       	movw	r28, r22
    155c:	88 2b       	or	r24, r24
    155e:	39 f0       	breq	.+14     	; 0x156e <samef+0x24>
    1560:	8a 95       	dec	r24
    1562:	41 91       	ld	r20, Z+
    1564:	59 91       	ld	r21, Y+
    1566:	45 17       	cp	r20, r21
    1568:	c9 f3       	breq	.-14     	; 0x155c <samef+0x12>
    156a:	88 27       	eor	r24, r24
    156c:	02 c0       	rjmp	.+4      	; 0x1572 <samef+0x28>
    156e:	8f ef       	ldi	r24, 0xFF	; 255
    1570:	9f ef       	ldi	r25, 0xFF	; 255
    1572:	0c 94 08 01 	jmp	0x210	; 0x210 <_link>

00001576 <is_copyf>:
    1576:	40 15       	cp	r20, r0
    1578:	06 28       	or	r0, r6
    157a:	63 6f       	ori	r22, 0xF3	; 243
    157c:	70 79       	andi	r23, 0x90	; 144
    157e:	29 20       	and	r2, r9

00001580 <copyf>:
    1580:	00 00       	nop
    1582:	99 27       	eor	r25, r25
    1584:	79 91       	ld	r23, Y+
    1586:	69 91       	ld	r22, Y+
    1588:	f9 91       	ld	r31, Y+
    158a:	e9 91       	ld	r30, Y+
    158c:	ce 93       	st	-X, r28
    158e:	de 93       	st	-X, r29
    1590:	eb 01       	movw	r28, r22
    1592:	88 17       	cp	r24, r24
    1594:	21 f0       	breq	.+8      	; 0x159e <copyf+0x1e>
    1596:	61 91       	ld	r22, Z+
    1598:	69 93       	st	Y+, r22
    159a:	8a 95       	dec	r24
    159c:	fa cf       	rjmp	.-12     	; 0x1592 <copyf+0x12>
    159e:	dd 91       	ld	r29, X+
    15a0:	cd 91       	ld	r28, X+
    15a2:	cf 01       	movw	r24, r30
    15a4:	0c 94 08 01 	jmp	0x210	; 0x210 <_link>

000015a8 <is_refillf>:
    15a8:	76 15       	cp	r23, r6
    15aa:	08 28       	or	r0, r8
    15ac:	72 65       	ori	r23, 0x52	; 82
    15ae:	66 69       	ori	r22, 0x96	; 150
    15b0:	6c 6c       	ori	r22, 0xCC	; 204
    15b2:	29 20       	and	r2, r9

000015b4 <refillf>:
    15b4:	00 00       	nop
    15b6:	f9 91       	ld	r31, Y+
    15b8:	e9 91       	ld	r30, Y+
    15ba:	8a 95       	dec	r24
    15bc:	8a 95       	dec	r24
    15be:	40 e2       	ldi	r20, 0x20	; 32
    15c0:	41 93       	st	Z+, r20
    15c2:	99 27       	eor	r25, r25
    15c4:	55 27       	eor	r21, r21
    15c6:	89 17       	cp	r24, r25
    15c8:	f1 f0       	breq	.+60     	; 0x1606 <refillf+0x52>
    15ca:	5f 9b       	sbis	0x0b, 7	; 11
    15cc:	fe cf       	rjmp	.-4      	; 0x15ca <refillf+0x16>
    15ce:	4c b1       	in	r20, 0x0c	; 12
    15d0:	40 38       	cpi	r20, 0x80	; 128
    15d2:	dc f7       	brge	.-10     	; 0x15ca <refillf+0x16>
    15d4:	5d 9b       	sbis	0x0b, 5	; 11
    15d6:	fe cf       	rjmp	.-4      	; 0x15d4 <refillf+0x20>
    15d8:	4c b9       	out	0x0c, r20	; 12
    15da:	4e 31       	cpi	r20, 0x1E	; 30
    15dc:	64 f4       	brge	.+24     	; 0x15f6 <refillf+0x42>
    15de:	4d 30       	cpi	r20, 0x0D	; 13
    15e0:	91 f0       	breq	.+36     	; 0x1606 <refillf+0x52>
    15e2:	4a 30       	cpi	r20, 0x0A	; 10
    15e4:	81 f0       	breq	.+32     	; 0x1606 <refillf+0x52>
    15e6:	48 30       	cpi	r20, 0x08	; 8
    15e8:	29 f4       	brne	.+10     	; 0x15f4 <refillf+0x40>
    15ea:	99 17       	cp	r25, r25
    15ec:	71 f3       	breq	.-36     	; 0x15ca <refillf+0x16>
    15ee:	9a 95       	dec	r25
    15f0:	31 97       	sbiw	r30, 0x01	; 1
    15f2:	eb cf       	rjmp	.-42     	; 0x15ca <refillf+0x16>
    15f4:	40 e2       	ldi	r20, 0x20	; 32
    15f6:	40 32       	cpi	r20, 0x20	; 32
    15f8:	11 f4       	brne	.+4      	; 0x15fe <refillf+0x4a>
    15fa:	45 17       	cp	r20, r21
    15fc:	31 f3       	breq	.-52     	; 0x15ca <refillf+0x16>
    15fe:	93 95       	inc	r25
    1600:	41 93       	st	Z+, r20
    1602:	54 2f       	mov	r21, r20
    1604:	e0 cf       	rjmp	.-64     	; 0x15c6 <refillf+0x12>
    1606:	40 e2       	ldi	r20, 0x20	; 32
    1608:	41 93       	st	Z+, r20
    160a:	89 2f       	mov	r24, r25
    160c:	99 27       	eor	r25, r25
    160e:	0c 94 08 01 	jmp	0x210	; 0x210 <_link>

00001612 <is_wordf>:
    1612:	a8 15       	cp	r26, r8
    1614:	06 28       	or	r0, r6
    1616:	77 6f       	ori	r23, 0xF7	; 247
    1618:	72 64       	ori	r23, 0x42	; 66
    161a:	29 20       	and	r2, r9

0000161c <wordf>:
    161c:	00 00       	nop
    161e:	f9 91       	ld	r31, Y+
    1620:	e9 91       	ld	r30, Y+
    1622:	99 27       	eor	r25, r25
    1624:	0a c0       	rjmp	.+20     	; 0x163a <_wsto>

00001626 <is_parsef>:
    1626:	12 16       	cp	r1, r18
    1628:	07 28       	or	r0, r7
    162a:	70 61       	ori	r23, 0x10	; 16
    162c:	72 73       	andi	r23, 0x32	; 50
    162e:	65 29       	or	r22, r5

00001630 <parsef>:
    1630:	00 00       	nop
    1632:	f9 91       	ld	r31, Y+
    1634:	e9 91       	ld	r30, Y+
    1636:	99 27       	eor	r25, r25
    1638:	07 c0       	rjmp	.+14     	; 0x1648 <_tows>

0000163a <_wsto>:
    163a:	60 81       	ld	r22, Z
    163c:	96 17       	cp	r25, r22
    163e:	b1 f0       	breq	.+44     	; 0x166c <is_digitf>
    1640:	86 17       	cp	r24, r22
    1642:	11 f4       	brne	.+4      	; 0x1648 <_tows>
    1644:	31 96       	adiw	r30, 0x01	; 1
    1646:	f9 cf       	rjmp	.-14     	; 0x163a <_wsto>

00001648 <_tows>:
    1648:	af 01       	movw	r20, r30
    164a:	60 81       	ld	r22, Z
    164c:	96 17       	cp	r25, r22
    164e:	71 f0       	breq	.+28     	; 0x166c <is_digitf>
    1650:	86 17       	cp	r24, r22
    1652:	11 f0       	breq	.+4      	; 0x1658 <_wsat>
    1654:	31 96       	adiw	r30, 0x01	; 1
    1656:	f9 cf       	rjmp	.-14     	; 0x164a <_tows+0x2>

00001658 <_wsat>:
    1658:	e4 1b       	sub	r30, r20
    165a:	f5 0b       	sbc	r31, r21
    165c:	4a 93       	st	-Y, r20
    165e:	5a 93       	st	-Y, r21
    1660:	cf 01       	movw	r24, r30
    1662:	02 c0       	rjmp	.+4      	; 0x1668 <_wsat+0x10>
    1664:	88 27       	eor	r24, r24
    1666:	99 27       	eor	r25, r25
    1668:	0c 94 08 01 	jmp	0x210	; 0x210 <_link>

0000166c <is_digitf>:
    166c:	26 16       	cp	r2, r22
    166e:	07 28       	or	r0, r7
    1670:	64 69       	ori	r22, 0x94	; 148
    1672:	67 69       	ori	r22, 0x97	; 151
    1674:	74 29       	or	r23, r4

00001676 <digitf>:
    1676:	00 00       	nop
    1678:	80 53       	subi	r24, 0x30	; 48
    167a:	80 30       	cpi	r24, 0x00	; 0
    167c:	64 f0       	brlt	.+24     	; 0x1696 <digitf+0x20>
    167e:	89 30       	cpi	r24, 0x09	; 9
    1680:	3c f0       	brlt	.+14     	; 0x1690 <digitf+0x1a>
    1682:	81 31       	cpi	r24, 0x11	; 17
    1684:	44 f0       	brlt	.+16     	; 0x1696 <digitf+0x20>
    1686:	87 50       	subi	r24, 0x07	; 7
    1688:	90 91 2a 08 	lds	r25, 0x082A	; 0x80082a <_end+0x72a>
    168c:	98 17       	cp	r25, r24
    168e:	1c f4       	brge	.+6      	; 0x1696 <digitf+0x20>
    1690:	9f ef       	ldi	r25, 0xFF	; 255
    1692:	8f ef       	ldi	r24, 0xFF	; 255
    1694:	02 c0       	rjmp	.+4      	; 0x169a <digitf+0x24>
    1696:	99 27       	eor	r25, r25
    1698:	88 27       	eor	r24, r24
    169a:	0c 94 08 01 	jmp	0x210	; 0x210 <_link>

0000169e <is_numberf>:
    169e:	6c 16       	cp	r6, r28
    16a0:	08 28       	or	r0, r8
    16a2:	6e 75       	andi	r22, 0x5E	; 94
    16a4:	6d 62       	ori	r22, 0x2D	; 45
    16a6:	65 72       	andi	r22, 0x25	; 37
    16a8:	29 20       	and	r2, r9

000016aa <numberf>:
    16aa:	00 00       	nop
    16ac:	99 27       	eor	r25, r25
    16ae:	98 17       	cp	r25, r24
    16b0:	1c f0       	brlt	.+6      	; 0x16b8 <numberf+0xe>
    16b2:	8a 93       	st	-Y, r24
    16b4:	9a 93       	st	-Y, r25
    16b6:	50 c0       	rjmp	.+160    	; 0x1758 <_next_digit+0x6>
    16b8:	f9 91       	ld	r31, Y+
    16ba:	e9 91       	ld	r30, Y+
    16bc:	bc 01       	movw	r22, r24
    16be:	88 27       	eor	r24, r24
    16c0:	99 27       	eor	r25, r25
    16c2:	70 90 2a 08 	lds	r7, 0x082A	; 0x80082a <_end+0x72a>
    16c6:	67 17       	cp	r22, r23
    16c8:	09 f4       	brne	.+2      	; 0x16cc <numberf+0x22>
    16ca:	49 c0       	rjmp	.+146    	; 0x175e <_next_digit+0xc>
    16cc:	41 91       	ld	r20, Z+
    16ce:	77 23       	and	r23, r23
    16d0:	c9 f4       	brne	.+50     	; 0x1704 <numberf+0x5a>
    16d2:	44 32       	cpi	r20, 0x24	; 36
    16d4:	19 f4       	brne	.+6      	; 0x16dc <numberf+0x32>
    16d6:	40 e1       	ldi	r20, 0x10	; 16
    16d8:	74 2e       	mov	r7, r20
    16da:	f5 cf       	rjmp	.-22     	; 0x16c6 <numberf+0x1c>
    16dc:	43 32       	cpi	r20, 0x23	; 35
    16de:	19 f4       	brne	.+6      	; 0x16e6 <numberf+0x3c>
    16e0:	4a e0       	ldi	r20, 0x0A	; 10
    16e2:	74 2e       	mov	r7, r20
    16e4:	f0 cf       	rjmp	.-32     	; 0x16c6 <numberf+0x1c>
    16e6:	45 32       	cpi	r20, 0x25	; 37
    16e8:	19 f4       	brne	.+6      	; 0x16f0 <numberf+0x46>
    16ea:	42 e0       	ldi	r20, 0x02	; 2
    16ec:	74 2e       	mov	r7, r20
    16ee:	eb cf       	rjmp	.-42     	; 0x16c6 <numberf+0x1c>
    16f0:	4d 32       	cpi	r20, 0x2D	; 45
    16f2:	19 f4       	brne	.+6      	; 0x16fa <numberf+0x50>
    16f4:	51 e0       	ldi	r21, 0x01	; 1
    16f6:	7a 95       	dec	r23
    16f8:	e6 cf       	rjmp	.-52     	; 0x16c6 <numberf+0x1c>
    16fa:	4b 32       	cpi	r20, 0x2B	; 43
    16fc:	19 f4       	brne	.+6      	; 0x1704 <numberf+0x5a>
    16fe:	50 e0       	ldi	r21, 0x00	; 0
    1700:	7a 95       	dec	r23
    1702:	e1 cf       	rjmp	.-62     	; 0x16c6 <numberf+0x1c>
    1704:	40 30       	cpi	r20, 0x00	; 0
    1706:	59 f1       	breq	.+86     	; 0x175e <_next_digit+0xc>
    1708:	40 32       	cpi	r20, 0x20	; 32
    170a:	49 f1       	breq	.+82     	; 0x175e <_next_digit+0xc>
    170c:	41 36       	cpi	r20, 0x61	; 97
    170e:	0c f0       	brlt	.+2      	; 0x1712 <numberf+0x68>
    1710:	40 52       	subi	r20, 0x20	; 32
    1712:	40 53       	subi	r20, 0x30	; 48
    1714:	40 30       	cpi	r20, 0x00	; 0
    1716:	04 f1       	brlt	.+64     	; 0x1758 <_next_digit+0x6>
    1718:	4a 30       	cpi	r20, 0x0A	; 10
    171a:	0c f0       	brlt	.+2      	; 0x171e <numberf+0x74>
    171c:	47 50       	subi	r20, 0x07	; 7
    171e:	47 15       	cp	r20, r7
    1720:	dc f4       	brge	.+54     	; 0x1758 <_next_digit+0x6>
    1722:	84 0f       	add	r24, r20
    1724:	96 1d       	adc	r25, r6
    1726:	0c 01       	movw	r0, r24
    1728:	47 15       	cp	r20, r7

0000172a <_bin_base>:
    172a:	00 0c       	add	r0, r0
    172c:	11 1c       	adc	r1, r1
    172e:	42 30       	cpi	r20, 0x02	; 2
    1730:	81 f0       	breq	.+32     	; 0x1752 <_next_digit>
    1732:	c0 01       	movw	r24, r0

00001734 <_nib_base>:
    1734:	00 0c       	add	r0, r0
    1736:	11 1c       	adc	r1, r1

00001738 <_oct_base>:
    1738:	00 0c       	add	r0, r0
    173a:	11 1c       	adc	r1, r1

0000173c <_dec_base>:
    173c:	4a 30       	cpi	r20, 0x0A	; 10
    173e:	19 f4       	brne	.+6      	; 0x1746 <_hex_base>
    1740:	08 0e       	add	r0, r24
    1742:	19 1e       	adc	r1, r25
    1744:	06 c0       	rjmp	.+12     	; 0x1752 <_next_digit>

00001746 <_hex_base>:
    1746:	00 0c       	add	r0, r0
    1748:	11 1c       	adc	r1, r1
    174a:	40 31       	cpi	r20, 0x10	; 16
    174c:	11 f0       	breq	.+4      	; 0x1752 <_next_digit>
    174e:	08 f4       	brcc	.+2      	; 0x1752 <_next_digit>
    1750:	03 c0       	rjmp	.+6      	; 0x1758 <_next_digit+0x6>

00001752 <_next_digit>:
    1752:	c0 01       	movw	r24, r0
    1754:	73 95       	inc	r23
    1756:	b0 cf       	rjmp	.-160    	; 0x16b8 <numberf+0xe>
    1758:	44 27       	eor	r20, r20
    175a:	55 27       	eor	r21, r21
    175c:	0a c0       	rjmp	.+20     	; 0x1772 <_next_digit+0x20>
    175e:	50 30       	cpi	r21, 0x00	; 0
    1760:	21 f0       	breq	.+8      	; 0x176a <_next_digit+0x18>
    1762:	80 95       	com	r24
    1764:	90 95       	com	r25
    1766:	01 96       	adiw	r24, 0x01	; 1
    1768:	b8 f3       	brcs	.-18     	; 0x1758 <_next_digit+0x6>
    176a:	8a 93       	st	-Y, r24
    176c:	9a 93       	st	-Y, r25
    176e:	4f ef       	ldi	r20, 0xFF	; 255
    1770:	5f ef       	ldi	r21, 0xFF	; 255
    1772:	ca 01       	movw	r24, r20
    1774:	0c 94 08 01 	jmp	0x210	; 0x210 <_link>

00001778 <is_findf>:
    1778:	9e 16       	cp	r9, r30
    177a:	06 28       	or	r0, r6
    177c:	66 69       	ori	r22, 0x96	; 150
    177e:	6e 64       	ori	r22, 0x4E	; 78
    1780:	29 20       	and	r2, r9

00001782 <findf>:
    1782:	00 00       	nop
    1784:	fc 01       	movw	r30, r24
    1786:	99 91       	ld	r25, Y+
    1788:	89 91       	ld	r24, Y+
    178a:	79 91       	ld	r23, Y+
    178c:	69 91       	ld	r22, Y+
    178e:	ce 93       	st	-X, r28
    1790:	de 93       	st	-X, r29
    1792:	6e 93       	st	-X, r22
    1794:	7e 93       	st	-X, r23
    1796:	eb 01       	movw	r28, r22
    1798:	98 2f       	mov	r25, r24
    179a:	ce 93       	st	-X, r28
    179c:	de 93       	st	-X, r29
    179e:	ee 93       	st	-X, r30
    17a0:	fe 93       	st	-X, r31
    17a2:	fd 91       	ld	r31, X+
    17a4:	ed 91       	ld	r30, X+
    17a6:	ee 0f       	add	r30, r30
    17a8:	ff 1f       	adc	r31, r31
    17aa:	45 91       	lpm	r20, Z+
    17ac:	55 91       	lpm	r21, Z+
    17ae:	f7 95       	ror	r31
    17b0:	e7 95       	ror	r30
    17b2:	45 17       	cp	r20, r21
    17b4:	51 f1       	breq	.+84     	; 0x180a <findf+0x88>
    17b6:	4e 93       	st	-X, r20
    17b8:	5e 93       	st	-X, r21
    17ba:	ee 0f       	add	r30, r30
    17bc:	ff 1f       	adc	r31, r31
    17be:	65 91       	lpm	r22, Z+
    17c0:	75 91       	lpm	r23, Z+
    17c2:	f7 95       	ror	r31
    17c4:	e7 95       	ror	r30
    17c6:	56 2f       	mov	r21, r22
    17c8:	6f 70       	andi	r22, 0x0F	; 15
    17ca:	68 17       	cp	r22, r24
    17cc:	51 f7       	brne	.-44     	; 0x17a2 <findf+0x20>
    17ce:	49 91       	ld	r20, Y+
    17d0:	47 17       	cp	r20, r23
    17d2:	39 f7       	brne	.-50     	; 0x17a2 <findf+0x20>
    17d4:	89 2f       	mov	r24, r25
    17d6:	8a 95       	dec	r24
    17d8:	79 f0       	breq	.+30     	; 0x17f8 <findf+0x76>
    17da:	ee 0f       	add	r30, r30
    17dc:	ff 1f       	adc	r31, r31
    17de:	65 91       	lpm	r22, Z+
    17e0:	75 91       	lpm	r23, Z+
    17e2:	f7 95       	ror	r31
    17e4:	e7 95       	ror	r30
    17e6:	49 91       	ld	r20, Y+
    17e8:	46 17       	cp	r20, r22
    17ea:	d9 f6       	brne	.-74     	; 0x17a2 <findf+0x20>
    17ec:	8a 95       	dec	r24
    17ee:	21 f0       	breq	.+8      	; 0x17f8 <findf+0x76>
    17f0:	49 91       	ld	r20, Y+
    17f2:	47 17       	cp	r20, r23
    17f4:	b1 f6       	brne	.-84     	; 0x17a2 <findf+0x20>
    17f6:	ef cf       	rjmp	.-34     	; 0x17d6 <findf+0x54>
    17f8:	50 74       	andi	r21, 0x40	; 64
    17fa:	21 f4       	brne	.+8      	; 0x1804 <findf+0x82>
    17fc:	88 27       	eor	r24, r24
    17fe:	99 27       	eor	r25, r25
    1800:	83 95       	inc	r24
    1802:	05 c0       	rjmp	.+10     	; 0x180e <findf+0x8c>
    1804:	8f ef       	ldi	r24, 0xFF	; 255
    1806:	9f ef       	ldi	r25, 0xFF	; 255
    1808:	02 c0       	rjmp	.+4      	; 0x180e <findf+0x8c>
    180a:	88 27       	eor	r24, r24
    180c:	88 27       	eor	r24, r24
    180e:	5d 91       	ld	r21, X+
    1810:	4d 91       	ld	r20, X+
    1812:	5d 91       	ld	r21, X+
    1814:	4d 91       	ld	r20, X+
    1816:	5d 91       	ld	r21, X+
    1818:	4d 91       	ld	r20, X+
    181a:	80 30       	cpi	r24, 0x00	; 0
    181c:	09 f0       	breq	.+2      	; 0x1820 <findf+0x9e>
    181e:	af 01       	movw	r20, r30
    1820:	dd 91       	ld	r29, X+
    1822:	cd 91       	ld	r28, X+
    1824:	4a 93       	st	-Y, r20
    1826:	5a 93       	st	-Y, r21
    1828:	0c 94 08 01 	jmp	0x210	; 0x210 <_link>

0000182c <is_NULL>:
    182c:	78 17       	cp	r23, r24
    182e:	04 4e       	sbci	r16, 0xE4	; 228
    1830:	55 4c       	sbci	r21, 0xC5	; 197
    1832:	4c 20       	and	r4, r12

00001834 <NULL>:
    1834:	00 00       	nop
    1836:	63 6f       	ori	r22, 0xF3	; 243
    1838:	79 6f       	ori	r23, 0xF9	; 249
    183a:	74 65       	ori	r23, 0x54	; 84
    183c:	00 ee       	ldi	r16, 0xE0	; 224
    183e:	01 00       	Address 0x000000000000183e is out of bounds.
.word	0xffff	; ????

0000183f <is_QERROR>:
    183f:	00 2c       	mov	r0, r0
    1841:	18 06       	cpc	r1, r24
    1843:	3f 45       	sbci	r19, 0x5F	; 95
    1845:	52 52       	subi	r21, 0x22	; 34
    1847:	4f 52       	subi	r20, 0x2F	; 47
    1849:	20 7e       	Address 0x0000000000001849 is out of bounds.
.word	0xffff	; ????

0000184a <QERROR>:
    184a:	7e 04       	cpc	r7, r14
    184c:	e4 05       	cpc	r30, r4
    184e:	56 18       	sub	r5, r6
    1850:	5c 04       	cpc	r5, r12
    1852:	c0 05       	cpc	r28, r0
    1854:	5e 18       	sub	r5, r14
    1856:	2c 21       	and	r18, r12
    1858:	54 14       	cp	r5, r4
    185a:	78 0c       	add	r7, r8
    185c:	92 21       	and	r25, r2
    185e:	ee 01       	movw	r28, r28

00001860 <is_QCOMP>:
    1860:	40 18       	sub	r4, r0
    1862:	05 3f       	cpi	r16, 0xF5	; 245
    1864:	43 4f       	sbci	r20, 0xF3	; 243
    1866:	4d 50       	subi	r20, 0x0D	; 13

00001868 <QCOMP>:
    1868:	1c 08       	sbc	r1, r12
    186a:	8e 03       	fmulsu	r16, r22
    186c:	16 03       	mulsu	r17, r22
    186e:	04 06       	cpc	r0, r20
    1870:	0b 00       	.word	0x000b	; ????
    1872:	4a 18       	sub	r4, r10
    1874:	ee 01       	movw	r28, r28

00001876 <is_QEXEC>:
    1876:	60 18       	sub	r6, r0
    1878:	05 3f       	cpi	r16, 0xF5	; 245
    187a:	45 58       	subi	r20, 0x85	; 133
    187c:	45 43       	sbci	r20, 0x35	; 53

0000187e <QEXEC>:
    187e:	1c 08       	sbc	r1, r12
    1880:	8e 03       	fmulsu	r16, r22
    1882:	b0 07       	cpc	r27, r16
    1884:	16 03       	mulsu	r17, r22
    1886:	04 06       	cpc	r0, r20
    1888:	0c 00       	.word	0x000c	; ????
    188a:	4a 18       	sub	r4, r10
    188c:	ee 01       	movw	r28, r28

0000188e <is_QCSP>:
    188e:	76 18       	sub	r7, r6
    1890:	04 3f       	cpi	r16, 0xF4	; 244
    1892:	43 53       	subi	r20, 0x33	; 51
    1894:	50 20       	and	r5, r0

00001896 <QCSP>:
    1896:	48 04       	cpc	r4, r8
    1898:	36 08       	sbc	r3, r6
    189a:	8e 03       	fmulsu	r16, r22
    189c:	f0 04       	cpc	r15, r0
    189e:	04 06       	cpc	r0, r20
    18a0:	0e 00       	.word	0x000e	; ????
    18a2:	4a 18       	sub	r4, r10
    18a4:	ee 01       	movw	r28, r28

000018a6 <is_QSTACK>:
    18a6:	8e 18       	sub	r8, r14
    18a8:	06 3f       	cpi	r16, 0xF6	; 246
    18aa:	53 54       	subi	r21, 0x43	; 67
    18ac:	41 43       	sbci	r20, 0x31	; 49
    18ae:	4b 20       	and	r4, r11

000018b0 <QSTACK>:
    18b0:	48 04       	cpc	r4, r8
    18b2:	90 01       	movw	r18, r0
    18b4:	56 07       	cpc	r21, r22
    18b6:	04 06       	cpc	r0, r20
    18b8:	01 00       	.word	0x0001	; ????
    18ba:	4a 18       	sub	r4, r10
    18bc:	48 04       	cpc	r4, r8
    18be:	90 01       	movw	r18, r0
    18c0:	f0 04       	cpc	r15, r0
    18c2:	04 06       	cpc	r0, r20
    18c4:	24 00       	.word	0x0024	; ????
    18c6:	f0 04       	cpc	r15, r0
    18c8:	04 06       	cpc	r0, r20
    18ca:	07 00       	.word	0x0007	; ????
    18cc:	4a 18       	sub	r4, r10
    18ce:	ee 01       	movw	r28, r28

000018d0 <is_QPAIR>:
    18d0:	a6 18       	sub	r10, r6
    18d2:	05 3f       	cpi	r16, 0xF5	; 245
    18d4:	50 41       	sbci	r21, 0x10	; 16
    18d6:	49 52       	subi	r20, 0x29	; 41

000018d8 <QPAIR>:
    18d8:	f0 04       	cpc	r15, r0
    18da:	04 06       	cpc	r0, r20
    18dc:	0d 00       	.word	0x000d	; ????
    18de:	4a 18       	sub	r4, r10
    18e0:	ee 01       	movw	r28, r28

000018e2 <is_QHOOK>:
    18e2:	d0 18       	sub	r13, r0
    18e4:	64 48       	sbci	r22, 0x84	; 132
    18e6:	4f 4f       	sbci	r20, 0xFF	; 255
    18e8:	4b 20       	and	r4, r11

000018ea <QHOOK>:
    18ea:	68 18       	sub	r6, r8
    18ec:	f0 0a       	sbc	r15, r16
    18ee:	04 06       	cpc	r0, r20
    18f0:	01 00       	.word	0x0001	; ????
    18f2:	ee 01       	movw	r28, r28

000018f4 <is_QBACK>:
    18f4:	e2 18       	sub	r14, r2
    18f6:	64 42       	sbci	r22, 0x24	; 36
    18f8:	41 43       	sbci	r20, 0x31	; 49
    18fa:	4b 20       	and	r4, r11

000018fc <QBACK>:
    18fc:	68 18       	sub	r6, r8
    18fe:	04 06       	cpc	r0, r20
    1900:	01 00       	.word	0x0001	; ????
    1902:	d8 18       	sub	r13, r8
    1904:	fe 0a       	sbc	r15, r30
    1906:	ee 01       	movw	r28, r28

00001908 <is_QIF>:
    1908:	f4 18       	sub	r15, r4
    190a:	62 49       	sbci	r22, 0x92	; 146
    190c:	46 20       	and	r4, r6

0000190e <QIF>:
    190e:	68 18       	sub	r6, r8
    1910:	70 0a       	sbc	r7, r16
    1912:	04 06       	cpc	r0, r20
    1914:	02 00       	.word	0x0002	; ????
    1916:	ee 01       	movw	r28, r28

00001918 <is_QELSE>:
    1918:	08 19       	sub	r16, r8
    191a:	64 45       	sbci	r22, 0x54	; 84
    191c:	4c 53       	subi	r20, 0x3C	; 60
    191e:	45 20       	and	r4, r5

00001920 <QELSE>:
    1920:	68 18       	sub	r6, r8
    1922:	04 06       	cpc	r0, r20
    1924:	02 00       	.word	0x0002	; ????
    1926:	d8 18       	sub	r13, r8
    1928:	04 06       	cpc	r0, r20
    192a:	02 00       	.word	0x0002	; ????
    192c:	a6 0a       	sbc	r10, r22
    192e:	ee 01       	movw	r28, r28

00001930 <is_QENDIF>:
    1930:	18 19       	sub	r17, r8
    1932:	65 45       	sbci	r22, 0x55	; 85
    1934:	4e 44       	sbci	r20, 0x4E	; 78
    1936:	49 46       	sbci	r20, 0x69	; 105

00001938 <QENDIF>:
    1938:	68 18       	sub	r6, r8
    193a:	04 06       	cpc	r0, r20
    193c:	02 00       	.word	0x0002	; ????
    193e:	d8 18       	sub	r13, r8
    1940:	9a 0a       	sbc	r9, r26
    1942:	ee 01       	movw	r28, r28

00001944 <is_QTHEN>:
    1944:	30 19       	sub	r19, r0
    1946:	64 54       	subi	r22, 0x44	; 68
    1948:	48 45       	sbci	r20, 0x58	; 88
    194a:	4e 20       	and	r4, r14

0000194c <QTHEN>:
    194c:	68 18       	sub	r6, r8
    194e:	04 06       	cpc	r0, r20
    1950:	02 00       	.word	0x0002	; ????
    1952:	d8 18       	sub	r13, r8
    1954:	9a 0a       	sbc	r9, r26
    1956:	ee 01       	movw	r28, r28

00001958 <is_QAHEAD>:
    1958:	44 19       	sub	r20, r4
    195a:	65 41       	sbci	r22, 0x15	; 21
    195c:	48 45       	sbci	r20, 0x58	; 88
    195e:	41 44       	sbci	r20, 0x41	; 65

00001960 <QAHEAD>:
    1960:	68 18       	sub	r6, r8
    1962:	7e 0a       	sbc	r7, r30
    1964:	04 06       	cpc	r0, r20
    1966:	02 00       	.word	0x0002	; ????
    1968:	ee 01       	movw	r28, r28

0000196a <is_QAFT>:
    196a:	58 19       	sub	r21, r8
    196c:	63 41       	sbci	r22, 0x13	; 19
    196e:	46 54       	subi	r20, 0x46	; 70

00001970 <QAFT>:
    1970:	68 18       	sub	r6, r8
    1972:	04 06       	cpc	r0, r20
    1974:	02 00       	.word	0x0002	; ????
    1976:	d8 18       	sub	r13, r8
    1978:	de 0a       	sbc	r13, r30
    197a:	04 06       	cpc	r0, r20
    197c:	02 00       	.word	0x0002	; ????
    197e:	ee 01       	movw	r28, r28

00001980 <is_QBEGIN>:
    1980:	6a 19       	sub	r22, r10
    1982:	65 42       	sbci	r22, 0x25	; 37
    1984:	45 47       	sbci	r20, 0x75	; 117
    1986:	49 4e       	sbci	r20, 0xE9	; 233

00001988 <QBEGIN>:
    1988:	68 18       	sub	r6, r8
    198a:	36 0a       	sbc	r3, r22
    198c:	04 06       	cpc	r0, r20
    198e:	03 00       	.word	0x0003	; ????
    1990:	ee 01       	movw	r28, r28

00001992 <is_QAGAIN>:
    1992:	80 19       	sub	r24, r0
    1994:	65 41       	sbci	r22, 0x15	; 21
    1996:	47 41       	sbci	r20, 0x17	; 23
    1998:	49 4e       	sbci	r20, 0xE9	; 233

0000199a <QAGAIN>:
    199a:	68 18       	sub	r6, r8
    199c:	04 06       	cpc	r0, r20
    199e:	03 00       	.word	0x0003	; ????
    19a0:	d8 18       	sub	r13, r8
    19a2:	42 0a       	sbc	r4, r18
    19a4:	ee 01       	movw	r28, r28

000019a6 <is_QUNTIL>:
    19a6:	92 19       	sub	r25, r2
    19a8:	65 55       	subi	r22, 0x55	; 85
    19aa:	4e 54       	subi	r20, 0x4E	; 78
    19ac:	49 4c       	sbci	r20, 0xC9	; 201

000019ae <QUNTIL>:
    19ae:	68 18       	sub	r6, r8
    19b0:	04 06       	cpc	r0, r20
    19b2:	03 00       	.word	0x0003	; ????
    19b4:	d8 18       	sub	r13, r8
    19b6:	52 0a       	sbc	r5, r18
    19b8:	ee 01       	movw	r28, r28

000019ba <is_QWHILE>:
    19ba:	a6 19       	sub	r26, r6
    19bc:	65 57       	subi	r22, 0x75	; 117
    19be:	48 49       	sbci	r20, 0x98	; 152
    19c0:	4c 45       	sbci	r20, 0x5C	; 92

000019c2 <QWHILE>:
    19c2:	68 18       	sub	r6, r8
    19c4:	04 06       	cpc	r0, r20
    19c6:	03 00       	.word	0x0003	; ????
    19c8:	d8 18       	sub	r13, r8
    19ca:	b6 0a       	sbc	r11, r22
    19cc:	04 06       	cpc	r0, r20
    19ce:	04 00       	.word	0x0004	; ????
    19d0:	ee 01       	movw	r28, r28

000019d2 <is_QREPEAT>:
    19d2:	ba 19       	sub	r27, r10
    19d4:	66 52       	subi	r22, 0x26	; 38
    19d6:	45 50       	subi	r20, 0x05	; 5
    19d8:	45 41       	sbci	r20, 0x15	; 21
    19da:	54 20       	and	r5, r4

000019dc <QREPEAT>:
    19dc:	68 18       	sub	r6, r8
    19de:	04 06       	cpc	r0, r20
    19e0:	04 00       	.word	0x0004	; ????
    19e2:	d8 18       	sub	r13, r8
    19e4:	c6 0a       	sbc	r12, r22
    19e6:	ee 01       	movw	r28, r28

000019e8 <is_QFOR>:
    19e8:	d2 19       	sub	r29, r2
    19ea:	63 46       	sbci	r22, 0x63	; 99
    19ec:	4f 52       	subi	r20, 0x2F	; 47

000019ee <QFOR>:
    19ee:	68 18       	sub	r6, r8
    19f0:	0a 0b       	sbc	r16, r26
    19f2:	04 06       	cpc	r0, r20
    19f4:	05 00       	.word	0x0005	; ????
    19f6:	ee 01       	movw	r28, r28

000019f8 <is_QNEXT>:
    19f8:	e8 19       	sub	r30, r8
    19fa:	64 4e       	sbci	r22, 0xE4	; 228
    19fc:	45 58       	subi	r20, 0x85	; 133
    19fe:	54 20       	and	r5, r4

00001a00 <QNEXT>:
    1a00:	68 18       	sub	r6, r8
    1a02:	04 06       	cpc	r0, r20
    1a04:	05 00       	.word	0x0005	; ????
    1a06:	d8 18       	sub	r13, r8
    1a08:	30 0b       	sbc	r19, r16
    1a0a:	ee 01       	movw	r28, r28

00001a0c <is_QCASE>:
    1a0c:	f8 19       	sub	r31, r8
    1a0e:	64 43       	sbci	r22, 0x34	; 52
    1a10:	41 53       	subi	r20, 0x31	; 49
    1a12:	45 20       	and	r4, r5

00001a14 <QCASE>:
    1a14:	68 18       	sub	r6, r8
    1a16:	40 0b       	sbc	r20, r16
    1a18:	04 06       	cpc	r0, r20
    1a1a:	06 00       	.word	0x0006	; ????
    1a1c:	ee 01       	movw	r28, r28

00001a1e <is_QENDCASE>:
    1a1e:	0c 1a       	sub	r0, r28
    1a20:	67 45       	sbci	r22, 0x57	; 87
    1a22:	4e 44       	sbci	r20, 0x4E	; 78
    1a24:	43 41       	sbci	r20, 0x13	; 19
    1a26:	53 45       	sbci	r21, 0x53	; 83

00001a28 <QENDCASE>:
    1a28:	68 18       	sub	r6, r8
    1a2a:	04 06       	cpc	r0, r20
    1a2c:	06 00       	.word	0x0006	; ????
    1a2e:	d8 18       	sub	r13, r8
    1a30:	8e 0b       	sbc	r24, r30
    1a32:	ee 01       	movw	r28, r28

00001a34 <is_QOF>:
    1a34:	1e 1a       	sub	r1, r30
    1a36:	62 4f       	sbci	r22, 0xF2	; 242
    1a38:	46 20       	and	r4, r6

00001a3a <QOF>:
    1a3a:	68 18       	sub	r6, r8
    1a3c:	04 06       	cpc	r0, r20
    1a3e:	06 00       	.word	0x0006	; ????
    1a40:	4a 0b       	sbc	r20, r26
    1a42:	d8 18       	sub	r13, r8
    1a44:	07 00       	.word	0x0007	; ????
    1a46:	ee 01       	movw	r28, r28

00001a48 <is_QENDOF>:
    1a48:	34 1a       	sub	r3, r20
    1a4a:	65 45       	sbci	r22, 0x55	; 85
    1a4c:	4e 44       	sbci	r20, 0x4E	; 78
    1a4e:	4f 46       	sbci	r20, 0x6F	; 111

00001a50 <QENDOF>:
    1a50:	68 18       	sub	r6, r8
    1a52:	04 06       	cpc	r0, r20
    1a54:	07 00       	.word	0x0007	; ????
    1a56:	d8 18       	sub	r13, r8
    1a58:	66 0b       	sbc	r22, r22
    1a5a:	04 06       	cpc	r0, r20
    1a5c:	06 00       	.word	0x0006	; ????
    1a5e:	ee 01       	movw	r28, r28

00001a60 <is_QDO>:
    1a60:	48 1a       	sub	r4, r24
    1a62:	62 44       	sbci	r22, 0x42	; 66
    1a64:	4f 20       	and	r4, r15

00001a66 <QDO>:
    1a66:	68 18       	sub	r6, r8
    1a68:	fe 0b       	sbc	r31, r30
    1a6a:	04 06       	cpc	r0, r20
    1a6c:	08 00       	.word	0x0008	; ????
    1a6e:	ee 01       	movw	r28, r28

00001a70 <is_QLOOP>:
    1a70:	60 1a       	sub	r6, r16
    1a72:	64 4c       	sbci	r22, 0xC4	; 196
    1a74:	4f 4f       	sbci	r20, 0xFF	; 255
    1a76:	50 20       	and	r5, r0

00001a78 <QLOOP>:
    1a78:	68 18       	sub	r6, r8
    1a7a:	04 06       	cpc	r0, r20
    1a7c:	08 00       	.word	0x0008	; ????
    1a7e:	d8 18       	sub	r13, r8
    1a80:	46 0c       	add	r4, r6
    1a82:	ee 01       	movw	r28, r28

00001a84 <is_QPLOOP>:
    1a84:	70 1a       	sub	r7, r16
    1a86:	65 2b       	or	r22, r21
    1a88:	4c 4f       	sbci	r20, 0xFC	; 252
    1a8a:	4f 50       	subi	r20, 0x0F	; 15

00001a8c <QPLOOP>:
    1a8c:	68 18       	sub	r6, r8
    1a8e:	04 06       	cpc	r0, r20
    1a90:	08 00       	.word	0x0008	; ????
    1a92:	d8 18       	sub	r13, r8
    1a94:	56 0c       	add	r5, r6
    1a96:	ee 01       	movw	r28, r28

00001a98 <is_QLEAVE>:
    1a98:	84 1a       	sub	r8, r20
    1a9a:	65 4c       	sbci	r22, 0xC5	; 197
    1a9c:	45 41       	sbci	r20, 0x15	; 21
    1a9e:	56 45       	sbci	r21, 0x56	; 86

00001aa0 <QLEAVE>:
    1aa0:	68 18       	sub	r6, r8
    1aa2:	04 06       	cpc	r0, r20
    1aa4:	08 00       	.word	0x0008	; ????
    1aa6:	d8 18       	sub	r13, r8
    1aa8:	2e 0c       	add	r2, r14
    1aaa:	04 06       	cpc	r0, r20
    1aac:	08 00       	.word	0x0008	; ????
    1aae:	ee 01       	movw	r28, r28

00001ab0 <is_QUNLOOP>:
    1ab0:	98 1a       	sub	r9, r24
    1ab2:	66 55       	subi	r22, 0x56	; 86
    1ab4:	4e 4c       	sbci	r20, 0xCE	; 206
    1ab6:	4f 4f       	sbci	r20, 0xFF	; 255
    1ab8:	50 20       	and	r5, r0

00001aba <QUNLOOP>:
    1aba:	68 18       	sub	r6, r8
    1abc:	04 06       	cpc	r0, r20
    1abe:	08 00       	.word	0x0008	; ????
    1ac0:	d8 18       	sub	r13, r8
    1ac2:	68 0c       	add	r6, r8
    1ac4:	04 06       	cpc	r0, r20
    1ac6:	08 00       	.word	0x0008	; ????
    1ac8:	ee 01       	movw	r28, r28

00001aca <is_VALUE>:
    1aca:	b0 1a       	sub	r11, r16
    1acc:	05 56       	subi	r16, 0x65	; 101
    1ace:	41 4c       	sbci	r20, 0xC1	; 193
    1ad0:	55 45       	sbci	r21, 0x55	; 85

00001ad2 <VALUE>:
    1ad2:	0e 20       	and	r0, r14
    1ad4:	5c 04       	cpc	r5, r12
    1ad6:	ae 09       	sbc	r26, r14
    1ad8:	ee 01       	movw	r28, r28

00001ada <is_TOVALUE>:
    1ada:	ca 1a       	sub	r12, r26
    1adc:	42 54       	subi	r20, 0x42	; 66
    1ade:	4f 20       	and	r4, r15

00001ae0 <TOVALUE>:
    1ae0:	d4 1f       	adc	r29, r20
    1ae2:	8a 07       	cpc	r24, r26
    1ae4:	76 03       	mulsu	r23, r22
    1ae6:	ee 01       	movw	r28, r28

00001ae8 <is_DEFER>:
    1ae8:	da 1a       	sub	r13, r26
    1aea:	05 44       	sbci	r16, 0x45	; 69
    1aec:	45 46       	sbci	r20, 0x65	; 101
    1aee:	45 52       	subi	r20, 0x25	; 37

00001af0 <DEFER>:
    1af0:	0e 20       	and	r0, r14
    1af2:	04 06       	cpc	r0, r20
    1af4:	0e 22       	and	r0, r30
    1af6:	04 06       	cpc	r0, r20
    1af8:	c0 05       	cpc	r28, r0
    1afa:	66 09       	sbc	r22, r6
    1afc:	66 09       	sbc	r22, r6
    1afe:	ee 01       	movw	r28, r28

00001b00 <is_ISDEFER>:
    1b00:	e8 1a       	sub	r14, r24
    1b02:	42 49       	sbci	r20, 0x92	; 146
    1b04:	53 20       	and	r5, r3

00001b06 <ISDEFER>:
    1b06:	d4 1f       	adc	r29, r20
    1b08:	8a 07       	cpc	r24, r26
    1b0a:	7e 04       	cpc	r7, r14
    1b0c:	76 03       	mulsu	r23, r22
    1b0e:	ee 01       	movw	r28, r28

00001b10 <is_SSMOVE>:
    1b10:	00 1b       	sub	r16, r16
    1b12:	06 53       	subi	r16, 0x36	; 54
    1b14:	53 4d       	sbci	r21, 0xD3	; 211
    1b16:	4f 56       	subi	r20, 0x6F	; 111
    1b18:	45 20       	and	r4, r5

00001b1a <SSMOVE>:
    1b1a:	b2 04       	cpc	r11, r2
    1b1c:	e4 05       	cpc	r30, r4
    1b1e:	ac 1c       	adc	r10, r12
    1b20:	6c 04       	cpc	r6, r12
    1b22:	ba 03       	fmulsu	r19, r18
    1b24:	6c 04       	cpc	r6, r12
    1b26:	96 04       	cpc	r9, r6
    1b28:	dc 04       	cpc	r13, r12
    1b2a:	ba 03       	fmulsu	r19, r18
    1b2c:	dc 04       	cpc	r13, r12
    1b2e:	d6 03       	fmuls	r21, r22
    1b30:	d6 03       	fmuls	r21, r22
    1b32:	b2 04       	cpc	r11, r2
    1b34:	e4 05       	cpc	r30, r4
    1b36:	ac 1c       	adc	r10, r12
    1b38:	b0 07       	cpc	r27, r16
    1b3a:	ba 03       	fmulsu	r19, r18
    1b3c:	96 04       	cpc	r9, r6
    1b3e:	8e 03       	fmulsu	r16, r22
    1b40:	6c 04       	cpc	r6, r12
    1b42:	04 06       	cpc	r0, r20
    1b44:	27 00       	.word	0x0027	; ????
    1b46:	40 07       	cpc	r20, r16
    1b48:	e4 05       	cpc	r30, r4
    1b4a:	9c 1c       	adc	r9, r12
    1b4c:	6c 04       	cpc	r6, r12
    1b4e:	04 06       	cpc	r0, r20
    1b50:	61 00       	.word	0x0061	; ????
    1b52:	40 07       	cpc	r20, r16
    1b54:	e4 05       	cpc	r30, r4
    1b56:	0c 00       	.word	0x000c	; ????
    1b58:	5c 04       	cpc	r5, r12
    1b5a:	04 06       	cpc	r0, r20
    1b5c:	07 00       	.word	0x0007	; ????
    1b5e:	c0 05       	cpc	r28, r0
    1b60:	9c 1c       	adc	r9, r12
    1b62:	6c 04       	cpc	r6, r12
    1b64:	04 06       	cpc	r0, r20
    1b66:	62 00       	.word	0x0062	; ????
    1b68:	40 07       	cpc	r20, r16
    1b6a:	e4 05       	cpc	r30, r4
    1b6c:	0e 00       	.word	0x000e	; ????
    1b6e:	5c 04       	cpc	r5, r12
    1b70:	04 06       	cpc	r0, r20
    1b72:	08 00       	.word	0x0008	; ????
    1b74:	c0 05       	cpc	r28, r0
    1b76:	9c 1c       	adc	r9, r12
    1b78:	6c 04       	cpc	r6, r12
    1b7a:	04 06       	cpc	r0, r20
    1b7c:	65 00       	.word	0x0065	; ????
    1b7e:	40 07       	cpc	r20, r16
    1b80:	e4 05       	cpc	r30, r4
    1b82:	10 00       	.word	0x0010	; ????
    1b84:	5c 04       	cpc	r5, r12
    1b86:	04 06       	cpc	r0, r20
    1b88:	1b 00       	.word	0x001b	; ????
    1b8a:	c0 05       	cpc	r28, r0
    1b8c:	9c 1c       	adc	r9, r12
    1b8e:	6c 04       	cpc	r6, r12
    1b90:	04 06       	cpc	r0, r20
    1b92:	66 00       	.word	0x0066	; ????
    1b94:	40 07       	cpc	r20, r16
    1b96:	e4 05       	cpc	r30, r4
    1b98:	12 00       	.word	0x0012	; ????
    1b9a:	5c 04       	cpc	r5, r12
    1b9c:	04 06       	cpc	r0, r20
    1b9e:	0c 00       	.word	0x000c	; ????
    1ba0:	c0 05       	cpc	r28, r0
    1ba2:	9c 1c       	adc	r9, r12
    1ba4:	6c 04       	cpc	r6, r12
    1ba6:	04 06       	cpc	r0, r20
    1ba8:	6c 00       	.word	0x006c	; ????
    1baa:	40 07       	cpc	r20, r16
    1bac:	e4 05       	cpc	r30, r4
    1bae:	14 00       	.word	0x0014	; ????
    1bb0:	5c 04       	cpc	r5, r12
    1bb2:	04 06       	cpc	r0, r20
    1bb4:	0a 00       	.word	0x000a	; ????
    1bb6:	c0 05       	cpc	r28, r0
    1bb8:	9c 1c       	adc	r9, r12
    1bba:	6c 04       	cpc	r6, r12
    1bbc:	04 06       	cpc	r0, r20
    1bbe:	6e 00       	.word	0x006e	; ????
    1bc0:	40 07       	cpc	r20, r16
    1bc2:	e4 05       	cpc	r30, r4
    1bc4:	16 00       	.word	0x0016	; ????
    1bc6:	5c 04       	cpc	r5, r12
    1bc8:	04 06       	cpc	r0, r20
    1bca:	0a 00       	.word	0x000a	; ????
    1bcc:	c0 05       	cpc	r28, r0
    1bce:	9c 1c       	adc	r9, r12
    1bd0:	6c 04       	cpc	r6, r12
    1bd2:	04 06       	cpc	r0, r20
    1bd4:	71 00       	.word	0x0071	; ????
    1bd6:	40 07       	cpc	r20, r16
    1bd8:	e4 05       	cpc	r30, r4
    1bda:	18 00       	.word	0x0018	; ????
    1bdc:	5c 04       	cpc	r5, r12
    1bde:	04 06       	cpc	r0, r20
    1be0:	22 00       	.word	0x0022	; ????
    1be2:	c0 05       	cpc	r28, r0
    1be4:	9c 1c       	adc	r9, r12
    1be6:	6c 04       	cpc	r6, r12
    1be8:	04 06       	cpc	r0, r20
    1bea:	72 00       	.word	0x0072	; ????
    1bec:	40 07       	cpc	r20, r16
    1bee:	e4 05       	cpc	r30, r4
    1bf0:	1a 00       	.word	0x001a	; ????
    1bf2:	5c 04       	cpc	r5, r12
    1bf4:	04 06       	cpc	r0, r20
    1bf6:	0d 00       	.word	0x000d	; ????
    1bf8:	c0 05       	cpc	r28, r0
    1bfa:	9c 1c       	adc	r9, r12
    1bfc:	6c 04       	cpc	r6, r12
    1bfe:	04 06       	cpc	r0, r20
    1c00:	74 00       	.word	0x0074	; ????
    1c02:	40 07       	cpc	r20, r16
    1c04:	e4 05       	cpc	r30, r4
    1c06:	1c 00       	.word	0x001c	; ????
    1c08:	5c 04       	cpc	r5, r12
    1c0a:	04 06       	cpc	r0, r20
    1c0c:	09 00       	.word	0x0009	; ????
    1c0e:	c0 05       	cpc	r28, r0
    1c10:	9c 1c       	adc	r9, r12
    1c12:	6c 04       	cpc	r6, r12
    1c14:	04 06       	cpc	r0, r20
    1c16:	76 00       	.word	0x0076	; ????
    1c18:	40 07       	cpc	r20, r16
    1c1a:	e4 05       	cpc	r30, r4
    1c1c:	1e 00       	.word	0x001e	; ????
    1c1e:	5c 04       	cpc	r5, r12
    1c20:	04 06       	cpc	r0, r20
    1c22:	0b 00       	.word	0x000b	; ????
    1c24:	c0 05       	cpc	r28, r0
    1c26:	9c 1c       	adc	r9, r12
    1c28:	6c 04       	cpc	r6, r12
    1c2a:	04 06       	cpc	r0, r20
    1c2c:	7a 00       	.word	0x007a	; ????
    1c2e:	40 07       	cpc	r20, r16
    1c30:	e4 05       	cpc	r30, r4
    1c32:	20 00       	.word	0x0020	; ????
    1c34:	5c 04       	cpc	r5, r12
    1c36:	04 06       	cpc	r0, r20
    1c38:	00 00       	nop
    1c3a:	c0 05       	cpc	r28, r0
    1c3c:	9c 1c       	adc	r9, r12
    1c3e:	6c 04       	cpc	r6, r12
    1c40:	04 06       	cpc	r0, r20
    1c42:	22 00       	.word	0x0022	; ????
    1c44:	40 07       	cpc	r20, r16
    1c46:	e4 05       	cpc	r30, r4
    1c48:	22 00       	.word	0x0022	; ????
    1c4a:	5c 04       	cpc	r5, r12
    1c4c:	04 06       	cpc	r0, r20
    1c4e:	22 00       	.word	0x0022	; ????
    1c50:	c0 05       	cpc	r28, r0
    1c52:	9c 1c       	adc	r9, r12
    1c54:	6c 04       	cpc	r6, r12
    1c56:	04 06       	cpc	r0, r20
    1c58:	5c 00       	.word	0x005c	; ????
    1c5a:	40 07       	cpc	r20, r16
    1c5c:	e4 05       	cpc	r30, r4
    1c5e:	24 00       	.word	0x0024	; ????
    1c60:	5c 04       	cpc	r5, r12
    1c62:	04 06       	cpc	r0, r20
    1c64:	5c 00       	.word	0x005c	; ????
    1c66:	c0 05       	cpc	r28, r0
    1c68:	9c 1c       	adc	r9, r12
    1c6a:	6c 04       	cpc	r6, r12
    1c6c:	04 06       	cpc	r0, r20
    1c6e:	78 00       	.word	0x0078	; ????
    1c70:	40 07       	cpc	r20, r16
    1c72:	e4 05       	cpc	r30, r4
    1c74:	26 00       	.word	0x0026	; ????
    1c76:	5c 04       	cpc	r5, r12
    1c78:	04 06       	cpc	r0, r20
    1c7a:	0a 00       	.word	0x000a	; ????
    1c7c:	c0 05       	cpc	r28, r0
    1c7e:	9c 1c       	adc	r9, r12
    1c80:	6c 04       	cpc	r6, r12
    1c82:	04 06       	cpc	r0, r20
    1c84:	6d 00       	.word	0x006d	; ????
    1c86:	40 07       	cpc	r20, r16
    1c88:	e4 05       	cpc	r30, r4
    1c8a:	28 00       	.word	0x0028	; ????
    1c8c:	5c 04       	cpc	r5, r12
    1c8e:	04 06       	cpc	r0, r20
    1c90:	0a 00       	.word	0x000a	; ????
    1c92:	c0 05       	cpc	r28, r0
    1c94:	9c 1c       	adc	r9, r12
    1c96:	5c 04       	cpc	r5, r12
    1c98:	04 06       	cpc	r0, r20
    1c9a:	20 00       	.word	0x0020	; ????
    1c9c:	96 04       	cpc	r9, r6
    1c9e:	76 03       	mulsu	r23, r22
    1ca0:	b0 07       	cpc	r27, r16
    1ca2:	7e 04       	cpc	r7, r14
    1ca4:	b0 07       	cpc	r27, r16
    1ca6:	7e 04       	cpc	r7, r14
    1ca8:	c0 05       	cpc	r28, r0
    1caa:	32 1b       	sub	r19, r18
    1cac:	5c 04       	cpc	r5, r12
    1cae:	5c 04       	cpc	r5, r12
    1cb0:	ee 01       	movw	r28, r28

00001cb2 <is_MOVE>:
    1cb2:	10 1b       	sub	r17, r16
    1cb4:	04 4d       	sbci	r16, 0xD4	; 212
    1cb6:	4f 56       	subi	r20, 0x6F	; 111
    1cb8:	45 20       	and	r4, r5

00001cba <MOVE>:
    1cba:	b2 04       	cpc	r11, r2
    1cbc:	e4 05       	cpc	r30, r4
    1cbe:	f0 1c       	adc	r15, r0
    1cc0:	6c 04       	cpc	r6, r12
    1cc2:	ba 03       	fmulsu	r19, r18
    1cc4:	6c 04       	cpc	r6, r12
    1cc6:	96 04       	cpc	r9, r6
    1cc8:	dc 04       	cpc	r13, r12
    1cca:	ba 03       	fmulsu	r19, r18
    1ccc:	dc 04       	cpc	r13, r12
    1cce:	d6 03       	fmuls	r21, r22
    1cd0:	d6 03       	fmuls	r21, r22
    1cd2:	b2 04       	cpc	r11, r2
    1cd4:	e4 05       	cpc	r30, r4
    1cd6:	f0 1c       	adc	r15, r0
    1cd8:	b0 07       	cpc	r27, r16
    1cda:	ba 03       	fmulsu	r19, r18
    1cdc:	96 04       	cpc	r9, r6
    1cde:	8e 03       	fmulsu	r16, r22
    1ce0:	96 04       	cpc	r9, r6
    1ce2:	76 03       	mulsu	r23, r22
    1ce4:	b0 07       	cpc	r27, r16
    1ce6:	7e 04       	cpc	r7, r14
    1ce8:	b0 07       	cpc	r27, r16
    1cea:	7e 04       	cpc	r7, r14
    1cec:	c0 05       	cpc	r28, r0
    1cee:	d2 1c       	adc	r13, r2
    1cf0:	5c 04       	cpc	r5, r12
    1cf2:	5c 04       	cpc	r5, r12
    1cf4:	ee 01       	movw	r28, r28

00001cf6 <is_CMOVE>:
    1cf6:	b2 1c       	adc	r11, r2
    1cf8:	05 43       	sbci	r16, 0x35	; 53
    1cfa:	4d 4f       	sbci	r20, 0xFD	; 253
    1cfc:	56 45       	sbci	r21, 0x56	; 86

00001cfe <CMOVE>:
    1cfe:	b2 04       	cpc	r11, r2
    1d00:	e4 05       	cpc	r30, r4
    1d02:	0e 1d       	adc	r16, r14
    1d04:	98 05       	cpc	r25, r8
    1d06:	8c 06       	cpc	r8, r28
    1d08:	dc 04       	cpc	r13, r12
    1d0a:	ba 1c       	adc	r11, r10
    1d0c:	ee 01       	movw	r28, r28
    1d0e:	5c 04       	cpc	r5, r12
    1d10:	5c 04       	cpc	r5, r12
    1d12:	ee 01       	movw	r28, r28

00001d14 <is_FILL>:
    1d14:	f6 1c       	adc	r15, r6
    1d16:	04 46       	sbci	r16, 0x64	; 100
    1d18:	49 4c       	sbci	r20, 0xC9	; 201
    1d1a:	4c 20       	and	r4, r12

00001d1c <FILL>:
    1d1c:	7e 04       	cpc	r7, r14
    1d1e:	b2 04       	cpc	r11, r2
    1d20:	e4 05       	cpc	r30, r4
    1d22:	40 1d       	adc	r20, r0
    1d24:	ba 03       	fmulsu	r19, r18
    1d26:	7e 04       	cpc	r7, r14
    1d28:	d6 03       	fmuls	r21, r22
    1d2a:	b2 04       	cpc	r11, r2
    1d2c:	e4 05       	cpc	r30, r4
    1d2e:	40 1d       	adc	r20, r0
    1d30:	b0 07       	cpc	r27, r16
    1d32:	ba 03       	fmulsu	r19, r18
    1d34:	96 04       	cpc	r9, r6
    1d36:	96 04       	cpc	r9, r6
    1d38:	52 06       	cpc	r5, r18
    1d3a:	a4 07       	cpc	r26, r20
    1d3c:	c0 05       	cpc	r28, r0
    1d3e:	28 1d       	adc	r18, r8
    1d40:	5c 04       	cpc	r5, r12
    1d42:	5c 04       	cpc	r5, r12
    1d44:	ee 01       	movw	r28, r28

00001d46 <is_RBRAC>:
    1d46:	14 1d       	adc	r17, r4
    1d48:	01 5d       	subi	r16, 0xD1	; 209

00001d4a <RBRAC>:
    1d4a:	8c 06       	cpc	r8, r28
    1d4c:	1c 08       	sbc	r1, r12
    1d4e:	76 03       	mulsu	r23, r22
    1d50:	ee 01       	movw	r28, r28

00001d52 <is_LBRAC>:
    1d52:	46 1d       	adc	r20, r6
    1d54:	41 5b       	subi	r20, 0xB1	; 177

00001d56 <LBRAC>:
    1d56:	7a 06       	cpc	r7, r26
    1d58:	1c 08       	sbc	r1, r12
    1d5a:	76 03       	mulsu	r23, r22
    1d5c:	ee 01       	movw	r28, r28

00001d5e <is_TOGGLE>:
    1d5e:	52 1d       	adc	r21, r2
    1d60:	06 54       	subi	r16, 0x46	; 70
    1d62:	4f 47       	sbci	r20, 0x7F	; 127
    1d64:	47 4c       	sbci	r20, 0xC7	; 199
    1d66:	45 20       	and	r4, r5

00001d68 <TOGGLE>:
    1d68:	96 04       	cpc	r9, r6
    1d6a:	8e 03       	fmulsu	r16, r22
    1d6c:	4a 05       	cpc	r20, r10
    1d6e:	7e 04       	cpc	r7, r14
    1d70:	76 03       	mulsu	r23, r22
    1d72:	ee 01       	movw	r28, r28

00001d74 <is_TONFA>:
    1d74:	5e 1d       	adc	r21, r14
    1d76:	04 3e       	cpi	r16, 0xE4	; 228
    1d78:	4e 46       	sbci	r20, 0x6E	; 110
    1d7a:	41 20       	and	r4, r1

00001d7c <TONFA>:
    1d7c:	3e 06       	cpc	r3, r30
    1d7e:	dc 04       	cpc	r13, r12
    1d80:	ee 01       	movw	r28, r28

00001d82 <is_TOCFA>:
    1d82:	74 1d       	adc	r23, r4
    1d84:	04 3e       	cpi	r16, 0xE4	; 228
    1d86:	43 46       	sbci	r20, 0x63	; 99
    1d88:	41 20       	and	r4, r1

00001d8a <TOCFA>:
    1d8a:	7c 1d       	adc	r23, r12
    1d8c:	6c 04       	cpc	r6, r12
    1d8e:	8e 03       	fmulsu	r16, r22
    1d90:	0f 00       	.word	0x000f	; ????
    1d92:	22 05       	cpc	r18, r2
    1d94:	dc 04       	cpc	r13, r12
    1d96:	3c 09       	sbc	r19, r12
    1d98:	ee 01       	movw	r28, r28

00001d9a <is_HIDDEN>:
    1d9a:	82 1d       	adc	r24, r2
    1d9c:	06 48       	sbci	r16, 0x86	; 134
    1d9e:	49 44       	sbci	r20, 0x49	; 73
    1da0:	44 45       	sbci	r20, 0x54	; 84
    1da2:	4e 20       	and	r4, r14

00001da4 <HIDDEN>:
    1da4:	f2 08       	sbc	r15, r2
    1da6:	7c 1d       	adc	r23, r12
    1da8:	10 00       	.word	0x0010	; ????
    1daa:	68 1d       	adc	r22, r8
    1dac:	ee 01       	movw	r28, r28

00001dae <is_IMMEDIATE>:
    1dae:	9a 1d       	adc	r25, r10
    1db0:	09 49       	sbci	r16, 0x99	; 153
    1db2:	4d 4d       	sbci	r20, 0xDD	; 221
    1db4:	45 44       	sbci	r20, 0x45	; 69
    1db6:	49 41       	sbci	r20, 0x19	; 25
    1db8:	54 45       	sbci	r21, 0x54	; 84

00001dba <IMMEDIATE>:
    1dba:	f2 08       	sbc	r15, r2
    1dbc:	7c 1d       	adc	r23, r12
    1dbe:	40 00       	.word	0x0040	; ????
    1dc0:	68 1d       	adc	r22, r8
    1dc2:	ee 01       	movw	r28, r28

00001dc4 <is_COMPILE_ONLY>:
    1dc4:	ae 1d       	adc	r26, r14
    1dc6:	0c 43       	sbci	r16, 0x3C	; 60
    1dc8:	4f 4d       	sbci	r20, 0xDF	; 223
    1dca:	50 49       	sbci	r21, 0x90	; 144
    1dcc:	4c 45       	sbci	r20, 0x5C	; 92
    1dce:	5f 4f       	sbci	r21, 0xFF	; 255
    1dd0:	4e 4c       	sbci	r20, 0xCE	; 206
    1dd2:	59 20       	and	r5, r9

00001dd4 <COMPILE_ONLY>:
    1dd4:	f2 08       	sbc	r15, r2
    1dd6:	7c 1d       	adc	r23, r12
    1dd8:	20 00       	.word	0x0020	; ????
    1dda:	68 1d       	adc	r22, r8
    1ddc:	ee 01       	movw	r28, r28

00001dde <is_HANDLER>:
    1dde:	c4 1d       	adc	r28, r4
    1de0:	07 48       	sbci	r16, 0x87	; 135
    1de2:	41 4e       	sbci	r20, 0xE1	; 225
    1de4:	44 4c       	sbci	r20, 0xC4	; 196
    1de6:	45 52       	subi	r20, 0x25	; 37

00001de8 <HANDLER>:
    1de8:	04 06       	cpc	r0, r20
    1dea:	d4 01       	movw	r26, r8
    1dec:	ee 01       	movw	r28, r28

00001dee <is_CATCH>:
    1dee:	de 1d       	adc	r29, r14
    1df0:	05 43       	sbci	r16, 0x35	; 53
    1df2:	41 54       	subi	r20, 0x41	; 65
    1df4:	43 48       	sbci	r20, 0x83	; 131

00001df6 <CATCH>:
    1df6:	48 04       	cpc	r4, r8
    1df8:	ba 03       	fmulsu	r19, r18
    1dfa:	e8 1d       	adc	r30, r8
    1dfc:	8e 03       	fmulsu	r16, r22
    1dfe:	ba 03       	fmulsu	r19, r18
    1e00:	36 04       	cpc	r3, r6
    1e02:	e8 1d       	adc	r30, r8
    1e04:	76 03       	mulsu	r23, r22
    1e06:	f4 09       	sbc	r31, r4
    1e08:	d6 03       	fmuls	r21, r22
    1e0a:	e8 1d       	adc	r30, r8
    1e0c:	76 03       	mulsu	r23, r22
    1e0e:	d6 03       	fmuls	r21, r22
    1e10:	5c 04       	cpc	r5, r12
    1e12:	7a 06       	cpc	r7, r26
    1e14:	ee 01       	movw	r28, r28

00001e16 <is_THROW>:
    1e16:	ee 1d       	adc	r30, r14
    1e18:	05 54       	subi	r16, 0x45	; 69
    1e1a:	48 52       	subi	r20, 0x28	; 40
    1e1c:	4f 57       	subi	r20, 0x7F	; 127

00001e1e <THROW>:
    1e1e:	b2 04       	cpc	r11, r2
    1e20:	e4 05       	cpc	r30, r4
    1e22:	3c 1e       	adc	r3, r28
    1e24:	e8 1d       	adc	r30, r8
    1e26:	8e 03       	fmulsu	r16, r22
    1e28:	12 04       	cpc	r1, r2
    1e2a:	d6 03       	fmuls	r21, r22
    1e2c:	e8 1d       	adc	r30, r8
    1e2e:	76 03       	mulsu	r23, r22
    1e30:	d6 03       	fmuls	r21, r22
    1e32:	7e 04       	cpc	r7, r14
    1e34:	ba 03       	fmulsu	r19, r18
    1e36:	24 04       	cpc	r2, r4
    1e38:	5c 04       	cpc	r5, r12
    1e3a:	d6 03       	fmuls	r21, r22
    1e3c:	ee 01       	movw	r28, r28

00001e3e <is_ABORT>:
    1e3e:	16 1e       	adc	r1, r22
    1e40:	05 41       	sbci	r16, 0x15	; 21
    1e42:	42 4f       	sbci	r20, 0xF2	; 242
    1e44:	52 54       	subi	r21, 0x42	; 66

00001e46 <ABORT>:
    1e46:	04 06       	cpc	r0, r20
    1e48:	ff ff       	.word	0xffff	; ????
    1e4a:	1e 1e       	adc	r1, r30
    1e4c:	ee 01       	movw	r28, r28

00001e4e <is_ACCEPT>:
    1e4e:	3e 1e       	adc	r3, r30
    1e50:	06 41       	sbci	r16, 0x16	; 22
    1e52:	43 43       	sbci	r20, 0x33	; 51
    1e54:	45 50       	subi	r20, 0x05	; 5
    1e56:	54 20       	and	r5, r4

00001e58 <ACCEPT>:
    1e58:	0e 22       	and	r0, r30
    1e5a:	ee 01       	movw	r28, r28

00001e5c <is_OVERT>:
    1e5c:	4e 1e       	adc	r4, r30
    1e5e:	05 4f       	sbci	r16, 0xF5	; 245
    1e60:	56 45       	sbci	r21, 0x56	; 86
    1e62:	52 54       	subi	r21, 0x42	; 66

00001e64 <OVERT>:
    1e64:	0e 22       	and	r0, r30
    1e66:	ee 01       	movw	r28, r28

00001e68 <is_COLON>:
    1e68:	5c 1e       	adc	r5, r28
    1e6a:	41 3a       	cpi	r20, 0xA1	; 161

00001e6c <COLON>:
    1e6c:	0e 20       	and	r0, r14
    1e6e:	4a 1d       	adc	r20, r10
    1e70:	ee 01       	movw	r28, r28

00001e72 <is_SEMIS>:
    1e72:	68 1e       	adc	r6, r24
    1e74:	01 3b       	cpi	r16, 0xB1	; 177

00001e76 <SEMIS>:
    1e76:	e4 09       	sbc	r30, r4
    1e78:	56 1d       	adc	r21, r6
    1e7a:	64 1e       	adc	r6, r20
    1e7c:	ee 01       	movw	r28, r28

00001e7e <is_SOURCE>:
    1e7e:	72 1e       	adc	r7, r18
    1e80:	06 53       	subi	r16, 0x36	; 54
    1e82:	4f 55       	subi	r20, 0x5F	; 95
    1e84:	52 43       	sbci	r21, 0x32	; 50
    1e86:	45 20       	and	r4, r5

00001e88 <SOURCE>:
    1e88:	04 06       	cpc	r0, r20
    1e8a:	00 01       	movw	r0, r0
    1e8c:	04 06       	cpc	r0, r20
    1e8e:	48 00       	.word	0x0048	; ????
    1e90:	96 04       	cpc	r9, r6
    1e92:	96 04       	cpc	r9, r6
    1e94:	dc 04       	cpc	r13, r12
    1e96:	04 06       	cpc	r0, r20
    1e98:	7a 06       	cpc	r7, r26
    1e9a:	7e 04       	cpc	r7, r14
    1e9c:	76 03       	mulsu	r23, r22
    1e9e:	8c 06       	cpc	r8, r28
    1ea0:	f0 04       	cpc	r15, r0
    1ea2:	ee 01       	movw	r28, r28

00001ea4 <is_SOURCEPLUS>:
    1ea4:	7e 1e       	adc	r7, r30
    1ea6:	07 53       	subi	r16, 0x37	; 55
    1ea8:	4f 55       	subi	r20, 0x5F	; 95
    1eaa:	52 43       	sbci	r21, 0x32	; 50
    1eac:	45 2b       	or	r20, r21

00001eae <SOURCEPLUS>:
    1eae:	88 1e       	adc	r8, r24
    1eb0:	5c 04       	cpc	r5, r12
    1eb2:	cc 01       	movw	r24, r24
    1eb4:	dc 04       	cpc	r13, r12
    1eb6:	ee 01       	movw	r28, r28

00001eb8 <is_REFILL>:
    1eb8:	a4 1e       	adc	r10, r20
    1eba:	06 52       	subi	r16, 0x26	; 38
    1ebc:	45 46       	sbci	r20, 0x65	; 101
    1ebe:	49 4c       	sbci	r20, 0xC9	; 201
    1ec0:	4c 20       	and	r4, r12

00001ec2 <REFILL>:
    1ec2:	88 1e       	adc	r8, r24
    1ec4:	b4 15       	cp	r27, r4
    1ec6:	7a 06       	cpc	r7, r26
    1ec8:	cc 01       	movw	r24, r24
    1eca:	76 03       	mulsu	r23, r22
    1ecc:	ee 01       	movw	r28, r28

00001ece <is_PARSE>:
    1ece:	b8 1e       	adc	r11, r24
    1ed0:	05 50       	subi	r16, 0x05	; 5
    1ed2:	41 52       	subi	r20, 0x21	; 33
    1ed4:	53 45       	sbci	r21, 0x53	; 83

00001ed6 <PARSE>:
    1ed6:	ae 1e       	adc	r10, r30
    1ed8:	7e 04       	cpc	r7, r14
    1eda:	30 16       	cp	r3, r16
    1edc:	b2 04       	cpc	r11, r2
    1ede:	e4 05       	cpc	r30, r4
    1ee0:	ea 1e       	adc	r14, r26
    1ee2:	6c 04       	cpc	r6, r12
    1ee4:	cc 01       	movw	r24, r24
    1ee6:	d4 07       	cpc	r29, r20
    1ee8:	ee 01       	movw	r28, r28
    1eea:	c2 1e       	adc	r12, r18
    1eec:	c0 05       	cpc	r28, r0
    1eee:	d6 1e       	adc	r13, r22

00001ef0 <is_BACKSLASH>:
    1ef0:	ce 1e       	adc	r12, r30
    1ef2:	41 5c       	subi	r20, 0xC1	; 193

00001ef4 <BACKSLASH>:
    1ef4:	04 06       	cpc	r0, r20
    1ef6:	48 00       	.word	0x0048	; ????
    1ef8:	cc 01       	movw	r24, r24
    1efa:	76 03       	mulsu	r23, r22
    1efc:	ee 01       	movw	r28, r28

00001efe <is_PAREN>:
    1efe:	f0 1e       	adc	r15, r16
    1f00:	41 28       	or	r4, r1

00001f02 <PAREN>:
    1f02:	04 06       	cpc	r0, r20
    1f04:	29 00       	.word	0x0029	; ????
    1f06:	d6 1e       	adc	r13, r22
    1f08:	5c 04       	cpc	r5, r12
    1f0a:	5c 04       	cpc	r5, r12
    1f0c:	ee 01       	movw	r28, r28

00001f0e <is_DOTPAREN>:
    1f0e:	fe 1e       	adc	r15, r30
    1f10:	02 2e       	mov	r0, r18
    1f12:	28 20       	and	r2, r8

00001f14 <DOTPAREN>:
    1f14:	04 06       	cpc	r0, r20
    1f16:	29 00       	.word	0x0029	; ????
    1f18:	d6 1e       	adc	r13, r22
    1f1a:	ee 01       	movw	r28, r28

00001f1c <is_SBSQUOTE>:
    1f1c:	0e 1f       	adc	r16, r30
    1f1e:	03 53       	subi	r16, 0x33	; 51
    1f20:	5c 22       	and	r5, r28

00001f22 <SBSQUOTE>:
    1f22:	d6 03       	fmuls	r21, r22
    1f24:	6c 04       	cpc	r6, r12
    1f26:	ee 0c       	add	r14, r14
    1f28:	02 0d       	add	r16, r2
    1f2a:	6c 04       	cpc	r6, r12
    1f2c:	8e 03       	fmulsu	r16, r22
    1f2e:	8c 06       	cpc	r8, r28
    1f30:	dc 04       	cpc	r13, r12
    1f32:	dc 04       	cpc	r13, r12
    1f34:	3e 06       	cpc	r3, r30
    1f36:	dc 04       	cpc	r13, r12
    1f38:	2c 06       	cpc	r2, r28
    1f3a:	ba 03       	fmulsu	r19, r18
    1f3c:	ee 01       	movw	r28, r28

00001f3e <is_SQUOTE>:
    1f3e:	1c 1f       	adc	r17, r28
    1f40:	02 53       	subi	r16, 0x32	; 50
    1f42:	22 20       	and	r2, r2

00001f44 <SQUOTE>:
    1f44:	d6 03       	fmuls	r21, r22
    1f46:	6c 04       	cpc	r6, r12
    1f48:	ee 0c       	add	r14, r14
    1f4a:	02 0d       	add	r16, r2
    1f4c:	6c 04       	cpc	r6, r12
    1f4e:	8e 03       	fmulsu	r16, r22
    1f50:	8c 06       	cpc	r8, r28
    1f52:	dc 04       	cpc	r13, r12
    1f54:	dc 04       	cpc	r13, r12
    1f56:	3e 06       	cpc	r3, r30
    1f58:	dc 04       	cpc	r13, r12
    1f5a:	2c 06       	cpc	r2, r28
    1f5c:	ba 03       	fmulsu	r19, r18
    1f5e:	ee 01       	movw	r28, r28

00001f60 <is_DOTQUOTE>:
    1f60:	3e 1f       	adc	r19, r30
    1f62:	42 2e       	mov	r4, r18
    1f64:	22 20       	and	r2, r2

00001f66 <DOTQUOTE>:
    1f66:	04 06       	cpc	r0, r20
    1f68:	22 00       	.word	0x0022	; ????
    1f6a:	d6 1e       	adc	r13, r22
    1f6c:	1c 08       	sbc	r1, r12
    1f6e:	8e 03       	fmulsu	r16, r22
    1f70:	e4 05       	cpc	r30, r4
    1f72:	8c 1f       	adc	r24, r28
    1f74:	ce 09       	sbc	r28, r14
    1f76:	44 1f       	adc	r20, r20
    1f78:	6c 04       	cpc	r6, r12
    1f7a:	58 09       	sbc	r21, r8
    1f7c:	0e 09       	sbc	r16, r14
    1f7e:	96 04       	cpc	r9, r6
    1f80:	1c 09       	sbc	r17, r12
    1f82:	3c 09       	sbc	r19, r12
    1f84:	7e 04       	cpc	r7, r14
    1f86:	fe 1c       	adc	r15, r14
    1f88:	c0 05       	cpc	r28, r0
    1f8a:	8e 1f       	adc	r24, r30
    1f8c:	02 0d       	add	r16, r2
    1f8e:	ee 01       	movw	r28, r28

00001f90 <is_PARSEN>:
    1f90:	60 1f       	adc	r22, r16
    1f92:	0a 50       	subi	r16, 0x0A	; 10
    1f94:	41 52       	subi	r20, 0x21	; 33
    1f96:	53 45       	sbci	r21, 0x53	; 83
    1f98:	2d 4e       	sbci	r18, 0xED	; 237
    1f9a:	41 4d       	sbci	r20, 0xD1	; 209
    1f9c:	45 20       	and	r4, r5

00001f9e <PARSEN>:
    1f9e:	ae 1e       	adc	r10, r30
    1fa0:	7e 04       	cpc	r7, r14
    1fa2:	1c 16       	cp	r1, r28
    1fa4:	b2 04       	cpc	r11, r2
    1fa6:	e4 05       	cpc	r30, r4
    1fa8:	b2 1f       	adc	r27, r18
    1faa:	6c 04       	cpc	r6, r12
    1fac:	cc 01       	movw	r24, r24
    1fae:	d4 07       	cpc	r29, r20
    1fb0:	ee 01       	movw	r28, r28
    1fb2:	c2 1e       	adc	r12, r18
    1fb4:	c0 05       	cpc	r28, r0
    1fb6:	9e 1f       	adc	r25, r30

00001fb8 <is_FINDN>:
    1fb8:	90 1f       	adc	r25, r16
    1fba:	09 46       	sbci	r16, 0x69	; 105
    1fbc:	49 4e       	sbci	r20, 0xE9	; 233
    1fbe:	44 2d       	mov	r20, r4
    1fc0:	4e 41       	sbci	r20, 0x1E	; 30
    1fc2:	4d 45       	sbci	r20, 0x5D	; 93

00001fc4 <FINDN>:
    1fc4:	f2 08       	sbc	r15, r2
    1fc6:	8e 03       	fmulsu	r16, r22
    1fc8:	82 17       	cp	r24, r18
    1fca:	ee 01       	movw	r28, r28

00001fcc <is_FIND>:
    1fcc:	b8 1f       	adc	r27, r24
    1fce:	04 46       	sbci	r16, 0x64	; 100
    1fd0:	49 4e       	sbci	r20, 0xE9	; 233
    1fd2:	44 20       	and	r4, r4

00001fd4 <FIND>:
    1fd4:	9e 1f       	adc	r25, r30
    1fd6:	c4 1f       	adc	r28, r20
    1fd8:	e4 05       	cpc	r30, r4
    1fda:	46 1e       	adc	r4, r22
    1fdc:	5c 04       	cpc	r5, r12
    1fde:	ee 01       	movw	r28, r28

00001fe0 <is_CHAR>:
    1fe0:	cc 1f       	adc	r28, r28
    1fe2:	04 43       	sbci	r16, 0x34	; 52
    1fe4:	48 41       	sbci	r20, 0x18	; 24
    1fe6:	52 20       	and	r5, r2

00001fe8 <CHAR>:
    1fe8:	9e 1f       	adc	r25, r30
    1fea:	5c 04       	cpc	r5, r12
    1fec:	8e 03       	fmulsu	r16, r22
    1fee:	ee 01       	movw	r28, r28

00001ff0 <is_NONAME>:
    1ff0:	e0 1f       	adc	r30, r16
    1ff2:	07 3a       	cpi	r16, 0xA7	; 167
    1ff4:	4e 4f       	sbci	r20, 0xFE	; 254
    1ff6:	4e 41       	sbci	r20, 0x1E	; 30
    1ff8:	4d 45       	sbci	r20, 0x5D	; 93

00001ffa <NONAME>:
    1ffa:	7a 06       	cpc	r7, r26
    1ffc:	7a 06       	cpc	r7, r26
    1ffe:	0e 20       	and	r0, r14
    2000:	4a 1d       	adc	r20, r10
    2002:	ee 01       	movw	r28, r28

00002004 <is_CREATE>:
    2004:	f0 1f       	adc	r31, r16
    2006:	06 43       	sbci	r16, 0x36	; 54
    2008:	52 45       	sbci	r21, 0x52	; 82
    200a:	41 54       	subi	r20, 0x41	; 65
    200c:	45 20       	and	r4, r5

0000200e <CREATE>:
    200e:	9e 1f       	adc	r25, r30
    2010:	04 06       	cpc	r0, r20
    2012:	ec 01       	movw	r28, r24
    2014:	6c 04       	cpc	r6, r12
    2016:	f2 08       	sbc	r15, r2
    2018:	8e 03       	fmulsu	r16, r22
    201a:	7e 04       	cpc	r7, r14
    201c:	76 03       	mulsu	r23, r22
    201e:	8a 07       	cpc	r24, r26
    2020:	96 04       	cpc	r9, r6
    2022:	96 04       	cpc	r9, r6
    2024:	76 03       	mulsu	r23, r22
    2026:	a4 07       	cpc	r26, r20
    2028:	7e 04       	cpc	r7, r14
    202a:	6c 04       	cpc	r6, r12
    202c:	ba 03       	fmulsu	r19, r18
    202e:	80 15       	cp	r24, r0
    2030:	d6 03       	fmuls	r21, r22
    2032:	6c 04       	cpc	r6, r12
    2034:	8c 06       	cpc	r8, r28
    2036:	22 05       	cpc	r18, r2
    2038:	16 03       	mulsu	r17, r22
    203a:	e4 05       	cpc	r30, r4
    203c:	4a 20       	and	r4, r10
    203e:	6c 04       	cpc	r6, r12
    2040:	94 0c       	add	r9, r4
    2042:	7e 04       	cpc	r7, r14
    2044:	76 03       	mulsu	r23, r22
    2046:	8c 06       	cpc	r8, r28
    2048:	dc 04       	cpc	r13, r12
    204a:	ee 01       	movw	r28, r28

0000204c <is_DOES>:
    204c:	04 20       	and	r0, r4
    204e:	04 44       	sbci	r16, 0x44	; 68
    2050:	4f 45       	sbci	r20, 0x5F	; 95
    2052:	53 20       	and	r5, r3

00002054 <DOES>:
    2054:	04 06       	cpc	r0, r20
    2056:	c0 05       	cpc	r28, r0
    2058:	66 09       	sbc	r22, r6
    205a:	0e 09       	sbc	r16, r14
    205c:	66 09       	sbc	r22, r6
    205e:	ee 01       	movw	r28, r28

00002060 <is_DOESTO>:
    2060:	4c 20       	and	r4, r12
    2062:	45 44       	sbci	r20, 0x45	; 69
    2064:	4f 45       	sbci	r20, 0x5F	; 95
    2066:	53 3e       	cpi	r21, 0xE3	; 227

00002068 <DOESTO>:
    2068:	04 06       	cpc	r0, r20
    206a:	c0 05       	cpc	r28, r0
    206c:	66 09       	sbc	r22, r6
    206e:	0e 09       	sbc	r16, r14
    2070:	66 09       	sbc	r22, r6
    2072:	ee 01       	movw	r28, r28

00002074 <is_CONSTANT>:
    2074:	60 20       	and	r6, r0
    2076:	08 43       	sbci	r16, 0x38	; 56
    2078:	4f 4e       	sbci	r20, 0xEF	; 239
    207a:	53 54       	subi	r21, 0x43	; 67
    207c:	41 4e       	sbci	r20, 0xE1	; 225
    207e:	54 20       	and	r5, r4

00002080 <CONSTANT>:
    2080:	0e 20       	and	r0, r14
    2082:	42 08       	sbc	r4, r2
    2084:	8e 03       	fmulsu	r16, r22
    2086:	6c 04       	cpc	r6, r12
    2088:	ba 03       	fmulsu	r19, r18
    208a:	b2 06       	cpc	r11, r18
    208c:	d6 03       	fmuls	r21, r22
    208e:	6c 04       	cpc	r6, r12
    2090:	3e 06       	cpc	r3, r30
    2092:	dc 04       	cpc	r13, r12
    2094:	42 08       	sbc	r4, r2
    2096:	76 03       	mulsu	r23, r22
    2098:	66 09       	sbc	r22, r6
    209a:	68 20       	and	r6, r8
    209c:	ee 01       	movw	r28, r28

0000209e <is_VARIABLE>:
    209e:	74 20       	and	r7, r4
    20a0:	08 56       	subi	r16, 0x68	; 104
    20a2:	41 52       	subi	r20, 0x21	; 33
    20a4:	49 41       	sbci	r20, 0x19	; 25
    20a6:	42 4c       	sbci	r20, 0xC2	; 194
    20a8:	45 20       	and	r4, r5

000020aa <VARIABLE>:
    20aa:	0e 20       	and	r0, r14
    20ac:	66 08       	sbc	r6, r6
    20ae:	8e 03       	fmulsu	r16, r22
    20b0:	6c 04       	cpc	r6, r12
    20b2:	ba 03       	fmulsu	r19, r18
    20b4:	76 03       	mulsu	r23, r22
    20b6:	d6 03       	fmuls	r21, r22
    20b8:	6c 04       	cpc	r6, r12
    20ba:	3e 06       	cpc	r3, r30
    20bc:	f0 04       	cpc	r15, r0
    20be:	66 08       	sbc	r6, r6
    20c0:	76 03       	mulsu	r23, r22
    20c2:	66 09       	sbc	r22, r6
    20c4:	68 20       	and	r6, r8
    20c6:	ee 01       	movw	r28, r28

000020c8 <is_TICK>:
    20c8:	9e 20       	and	r9, r14
    20ca:	01 27       	eor	r16, r17

000020cc <TICK>:
    20cc:	c4 1f       	adc	r28, r20
    20ce:	6c 04       	cpc	r6, r12
    20d0:	16 03       	mulsu	r17, r22
    20d2:	e4 05       	cpc	r30, r4
    20d4:	d8 20       	and	r13, r8
    20d6:	7e 04       	cpc	r7, r14
    20d8:	5c 04       	cpc	r5, r12
    20da:	ee 01       	movw	r28, r28

000020dc <is_POSTPONE>:
    20dc:	c8 20       	and	r12, r8
    20de:	48 50       	subi	r20, 0x08	; 8
    20e0:	4f 53       	subi	r20, 0x3F	; 63
    20e2:	54 50       	subi	r21, 0x04	; 4
    20e4:	4f 4e       	sbci	r20, 0xEF	; 239
    20e6:	45 20       	and	r4, r5

000020e8 <POSTPONE>:
    20e8:	cc 20       	and	r12, r12
    20ea:	66 09       	sbc	r22, r6
    20ec:	ee 01       	movw	r28, r28

000020ee <is_COMPILE>:
    20ee:	dc 20       	and	r13, r12
    20f0:	47 43       	sbci	r20, 0x37	; 55
    20f2:	4f 4d       	sbci	r20, 0xDF	; 223
    20f4:	50 49       	sbci	r21, 0x90	; 144
    20f6:	4c 45       	sbci	r20, 0x5C	; 92

000020f8 <COMPILE>:
    20f8:	8a 09       	sbc	r24, r10
    20fa:	8e 03       	fmulsu	r16, r22
    20fc:	66 09       	sbc	r22, r6
    20fe:	ee 01       	movw	r28, r28

00002100 <is_NUMBN>:
    2100:	ee 20       	and	r14, r14
    2102:	05 4e       	sbci	r16, 0xE5	; 229
    2104:	55 4d       	sbci	r21, 0xD5	; 213
    2106:	42 4e       	sbci	r20, 0xE2	; 226

00002108 <NUMBN>:
    2108:	96 04       	cpc	r9, r6
    210a:	96 04       	cpc	r9, r6
    210c:	aa 16       	cp	r10, r26
    210e:	e4 05       	cpc	r30, r4
    2110:	20 21       	and	r18, r0
    2112:	ba 03       	fmulsu	r19, r18
    2114:	5c 04       	cpc	r5, r12
    2116:	5c 04       	cpc	r5, r12
    2118:	d6 03       	fmuls	r21, r22
    211a:	ec 02       	muls	r30, r28
    211c:	c0 05       	cpc	r28, r0
    211e:	22 21       	and	r18, r2
    2120:	02 03       	mulsu	r16, r18
    2122:	ee 01       	movw	r28, r28

00002124 <is_NONEN>:
    2124:	00 21       	and	r16, r0
    2126:	05 4e       	sbci	r16, 0xE5	; 229
    2128:	4f 4e       	sbci	r20, 0xEF	; 239
    212a:	45 4e       	sbci	r20, 0xE5	; 229

0000212c <NONEN>:
    212c:	78 0c       	add	r7, r8
    212e:	02 0d       	add	r16, r2
    2130:	04 06       	cpc	r0, r20
    2132:	72 01       	movw	r14, r4
    2134:	04 06       	cpc	r0, r20
    2136:	04 00       	.word	0x0004	; ????
    2138:	02 0d       	add	r16, r2
    213a:	ee 01       	movw	r28, r28

0000213c <is_EVAL>:
    213c:	24 21       	and	r18, r4
    213e:	04 45       	sbci	r16, 0x54	; 84
    2140:	56 41       	sbci	r21, 0x16	; 22
    2142:	4c 20       	and	r4, r12

00002144 <EVAL>:
    2144:	9e 1f       	adc	r25, r30
    2146:	c4 1f       	adc	r28, r20
    2148:	e4 05       	cpc	r30, r4
    214a:	68 21       	and	r22, r8
    214c:	b0 07       	cpc	r27, r16
    214e:	16 03       	mulsu	r17, r22
    2150:	e4 05       	cpc	r30, r4
    2152:	62 21       	and	r22, r2
    2154:	1c 08       	sbc	r1, r12
    2156:	8e 03       	fmulsu	r16, r22
    2158:	e4 05       	cpc	r30, r4
    215a:	62 21       	and	r22, r2
    215c:	66 09       	sbc	r22, r6
    215e:	c0 05       	cpc	r28, r0
    2160:	44 21       	and	r20, r4
    2162:	f4 09       	sbc	r31, r4
    2164:	c0 05       	cpc	r28, r0
    2166:	44 21       	and	r20, r4
    2168:	08 21       	and	r16, r8
    216a:	e4 05       	cpc	r30, r4
    216c:	82 21       	and	r24, r2
    216e:	1c 08       	sbc	r1, r12
    2170:	8e 03       	fmulsu	r16, r22
    2172:	e4 05       	cpc	r30, r4
    2174:	44 21       	and	r20, r4
    2176:	04 06       	cpc	r0, r20
    2178:	04 06       	cpc	r0, r20
    217a:	66 09       	sbc	r22, r6
    217c:	66 09       	sbc	r22, r6
    217e:	c0 05       	cpc	r28, r0
    2180:	44 21       	and	r20, r4
    2182:	2c 21       	and	r18, r12
    2184:	c0 05       	cpc	r28, r0
    2186:	44 21       	and	r20, r4
    2188:	ee 01       	movw	r28, r28

0000218a <is_QUIT>:
    218a:	3c 21       	and	r19, r12
    218c:	04 51       	subi	r16, 0x14	; 20
    218e:	55 49       	sbci	r21, 0x95	; 149
    2190:	54 20       	and	r5, r4

00002192 <QUIT>:
    2192:	56 1d       	adc	r21, r6
    2194:	b4 01       	movw	r22, r8
    2196:	12 04       	cpc	r1, r2
    2198:	c2 1e       	adc	r12, r18
    219a:	44 21       	and	r20, r4
    219c:	f6 1d       	adc	r31, r6
    219e:	6c 04       	cpc	r6, r12
    21a0:	04 06       	cpc	r0, r20
    21a2:	00 00       	nop
    21a4:	40 07       	cpc	r20, r16
    21a6:	e4 05       	cpc	r30, r4
    21a8:	c8 21       	and	r28, r8
    21aa:	1c 08       	sbc	r1, r12
    21ac:	8e 03       	fmulsu	r16, r22
    21ae:	16 03       	mulsu	r17, r22
    21b0:	e4 05       	cpc	r30, r4
    21b2:	fe 21       	and	r31, r14
    21b4:	04 06       	cpc	r0, r20
    21b6:	6d 01       	movw	r12, r26
    21b8:	04 06       	cpc	r0, r20
    21ba:	04 00       	.word	0x0004	; ????
    21bc:	02 0d       	add	r16, r2
    21be:	c0 05       	cpc	r28, r0
    21c0:	fe 21       	and	r31, r14
    21c2:	78 0c       	add	r7, r8
    21c4:	c0 05       	cpc	r28, r0
    21c6:	9a 21       	and	r25, r10
    21c8:	6c 04       	cpc	r6, r12
    21ca:	04 06       	cpc	r0, r20
    21cc:	ff ff       	.word	0xffff	; ????
    21ce:	40 07       	cpc	r20, r16
    21d0:	e4 05       	cpc	r30, r4
    21d2:	e2 21       	and	r30, r2
    21d4:	04 06       	cpc	r0, r20
    21d6:	91 01       	movw	r18, r2
    21d8:	04 06       	cpc	r0, r20
    21da:	08 00       	.word	0x0008	; ????
    21dc:	02 0d       	add	r16, r2
    21de:	c0 05       	cpc	r28, r0
    21e0:	fe 21       	and	r31, r14
    21e2:	6c 04       	cpc	r6, r12
    21e4:	04 06       	cpc	r0, r20
    21e6:	fe ff       	.word	0xfffe	; ????
    21e8:	40 07       	cpc	r20, r16
    21ea:	e4 05       	cpc	r30, r4
    21ec:	fe 21       	and	r31, r14
    21ee:	04 06       	cpc	r0, r20
    21f0:	84 01       	movw	r16, r8
    21f2:	04 06       	cpc	r0, r20
    21f4:	0c 00       	.word	0x000c	; ????
    21f6:	02 0d       	add	r16, r2
    21f8:	54 14       	cp	r5, r4
    21fa:	c0 05       	cpc	r28, r0
    21fc:	fe 21       	and	r31, r14
    21fe:	78 0c       	add	r7, r8
    2200:	c0 05       	cpc	r28, r0
    2202:	9a 21       	and	r25, r10
    2204:	ee 01       	movw	r28, r28

00002206 <_link_>:
    2206:	8a 21       	and	r24, r10
    2208:	05 55       	subi	r16, 0x55	; 85
    220a:	4e 44       	sbci	r20, 0x4E	; 78
    220c:	45 46       	sbci	r20, 0x65	; 101

0000220e <UNDEF>:
    220e:	04 06       	cpc	r0, r20
    2210:	77 01       	movw	r14, r14
    2212:	04 06       	cpc	r0, r20
    2214:	0c 00       	.word	0x000c	; ????
    2216:	02 0d       	add	r16, r2
    2218:	78 0c       	add	r7, r8
    221a:	ee 01       	movw	r28, r28
